ARM GAS  C:\Users\11655\AppData\Local\Temp\ccZrn4DB.s 			page 1


   1              		.cpu cortex-m3
   2              		.arch armv7-m
   3              		.fpu softvfp
   4              		.eabi_attribute 20, 1
   5              		.eabi_attribute 21, 1
   6              		.eabi_attribute 23, 3
   7              		.eabi_attribute 24, 1
   8              		.eabi_attribute 25, 1
   9              		.eabi_attribute 26, 1
  10              		.eabi_attribute 30, 1
  11              		.eabi_attribute 34, 1
  12              		.eabi_attribute 18, 4
  13              		.file	"main.c"
  14              		.text
  15              	.Ltext0:
  16              		.cfi_sections	.debug_frame
  17              		.section	.text.GPIOA_Init,"ax",%progbits
  18              		.align	1
  19              		.global	GPIOA_Init
  20              		.syntax unified
  21              		.thumb
  22              		.thumb_func
  24              	GPIOA_Init:
  25              	.LFB65:
  26              		.file 1 "Core/Src/main.c"
   1:Core/Src/main.c **** /**
   2:Core/Src/main.c ****  * @file	99_Test
   3:Core/Src/main.c ****  * @brief 	ç”¨äºå·¥ç¨‹æ¨¡æ¿
   4:Core/Src/main.c ****  * @author 	TRTX-gamer
   5:Core/Src/main.c ****  * @version 1.00
   6:Core/Src/main.c ****  * @date 	2022å¹´3æœˆ26å·13ç‚¹07åˆ†
   7:Core/Src/main.c ****  */
   8:Core/Src/main.c **** 
   9:Core/Src/main.c **** #include "sys.h"
  10:Core/Src/main.c **** #include "delay.h"
  11:Core/Src/main.c **** 
  12:Core/Src/main.c **** void GPIOA_Init(void);
  13:Core/Src/main.c **** void PWM_MG90S(u32 nusa, u32 nusb, u32 nusc);
  14:Core/Src/main.c **** void Beep_Init(void);
  15:Core/Src/main.c **** void LED_Init(void);
  16:Core/Src/main.c **** void Key_Init(void);
  17:Core/Src/main.c **** u8 Key_Scan(u8 MODE);
  18:Core/Src/main.c **** 
  19:Core/Src/main.c **** /**
  20:Core/Src/main.c ****  * @brief	åˆ©ç”¨HALåº“å‡½æ•°è¿›è¡ŒGPIOåˆå§‹åŒ–
  21:Core/Src/main.c ****  * @param 	none
  22:Core/Src/main.c ****  * @arg		none
  23:Core/Src/main.c ****  * @note  	å…ˆå¼€å¯GPIOæ—¶é’Ÿï¼Œå†åˆ©ç”¨HAL_GPIO_Init();å‡½æ•°è¿›è¡Œç®¡è„šåˆå§‹åŒ–
  24:Core/Src/main.c ****  * @retval	none
  25:Core/Src/main.c ****  */
  26:Core/Src/main.c **** void GPIOA_Init(void)
  27:Core/Src/main.c **** {
  27              		.loc 1 27 1 view -0
  28              		.cfi_startproc
  29              		@ args = 0, pretend = 0, frame = 24
  30              		@ frame_needed = 0, uses_anonymous_args = 0
  31 0000 F0B5     		push	{r4, r5, r6, r7, lr}
ARM GAS  C:\Users\11655\AppData\Local\Temp\ccZrn4DB.s 			page 2


  32              	.LCFI0:
  33              		.cfi_def_cfa_offset 20
  34              		.cfi_offset 4, -20
  35              		.cfi_offset 5, -16
  36              		.cfi_offset 6, -12
  37              		.cfi_offset 7, -8
  38              		.cfi_offset 14, -4
  39 0002 87B0     		sub	sp, sp, #28
  40              	.LCFI1:
  41              		.cfi_def_cfa_offset 48
  28:Core/Src/main.c **** 	GPIO_InitTypeDef GPIO_InitTure;
  42              		.loc 1 28 2 view .LVU1
  29:Core/Src/main.c **** 
  30:Core/Src/main.c **** 	__HAL_RCC_GPIOA_CLK_ENABLE(); // å¼€å¯GPIOBæ—¶é’Ÿ
  43              		.loc 1 30 2 view .LVU2
  44              	.LBB2:
  45              		.loc 1 30 2 view .LVU3
  46              		.loc 1 30 2 view .LVU4
  47 0004 1A4B     		ldr	r3, .L3
  48 0006 9A69     		ldr	r2, [r3, #24]
  49 0008 42F00402 		orr	r2, r2, #4
  50 000c 9A61     		str	r2, [r3, #24]
  51              		.loc 1 30 2 view .LVU5
  52 000e 9B69     		ldr	r3, [r3, #24]
  53 0010 03F00403 		and	r3, r3, #4
  54 0014 0193     		str	r3, [sp, #4]
  55              		.loc 1 30 2 view .LVU6
  56 0016 019B     		ldr	r3, [sp, #4]
  57              	.LBE2:
  58              		.loc 1 30 2 view .LVU7
  31:Core/Src/main.c **** 	/*ARMçš„èŠ¯ç‰‡éƒ½æ˜¯è¿™æ ·ï¼Œå¤–è®¾é€šå¸¸éƒ½æ˜¯ç»™äº†æ—¶é’Ÿåï¼Œæ‰èƒ½è®¾ç½®å®ƒçš„å¯„å­˜å™¨,è¿™ä¹
  32:Core/Src/main.c **** 
  33:Core/Src/main.c **** 	/*è¿›è¡Œç»“æ„ä½“å†…çš„å‚æ•°é…ç½®ï¼Œå…ˆæ‰¾åˆ°ä¸‹é¢HAL_GPIO_Init();çš„å®šä¹‰å¤„ï¼Œå†å¯¹å®šä¹‰å¤
  34:Core/Src/main.c **** 	GPIO_InitTure.Mode = GPIO_MODE_OUTPUT_PP;	// æ¨æŒ½è¾“å‡º
  59              		.loc 1 34 2 view .LVU8
  60              		.loc 1 34 21 is_stmt 0 view .LVU9
  61 0018 0123     		movs	r3, #1
  62 001a 0393     		str	r3, [sp, #12]
  35:Core/Src/main.c **** 	GPIO_InitTure.Pull = GPIO_PULLUP;			// ä¸Šæ‹‰
  63              		.loc 1 35 2 is_stmt 1 view .LVU10
  64              		.loc 1 35 21 is_stmt 0 view .LVU11
  65 001c 0493     		str	r3, [sp, #16]
  36:Core/Src/main.c **** 	GPIO_InitTure.Speed = GPIO_SPEED_FREQ_HIGH; // é«˜é€Ÿ
  66              		.loc 1 36 2 is_stmt 1 view .LVU12
  67              		.loc 1 36 22 is_stmt 0 view .LVU13
  68 001e 0323     		movs	r3, #3
  69 0020 0593     		str	r3, [sp, #20]
  37:Core/Src/main.c **** 
  38:Core/Src/main.c **** 	GPIO_InitTure.Pin = GPIO_PIN_5;		  // è®¾ç½®GPIOxçš„5å£
  70              		.loc 1 38 2 is_stmt 1 view .LVU14
  71              		.loc 1 38 20 is_stmt 0 view .LVU15
  72 0022 2027     		movs	r7, #32
  73 0024 0297     		str	r7, [sp, #8]
  39:Core/Src/main.c **** 	HAL_GPIO_Init(GPIOA, &GPIO_InitTure); // å…ˆåœ¨ä¸Šé¢å››è¡Œè®¾ç½®GPIOXçš„æ¨¡å¼ï¼Œä¸Šä¸‹æ‹‰ï¼Œé€Ÿå
  74              		.loc 1 39 2 is_stmt 1 view .LVU16
  75 0026 134C     		ldr	r4, .L3+4
  76 0028 02A9     		add	r1, sp, #8
ARM GAS  C:\Users\11655\AppData\Local\Temp\ccZrn4DB.s 			page 3


  77 002a 2046     		mov	r0, r4
  78 002c FFF7FEFF 		bl	HAL_GPIO_Init
  79              	.LVL0:
  40:Core/Src/main.c **** 	GPIO_InitTure.Pin = GPIO_PIN_6;
  80              		.loc 1 40 2 view .LVU17
  81              		.loc 1 40 20 is_stmt 0 view .LVU18
  82 0030 4026     		movs	r6, #64
  83 0032 0296     		str	r6, [sp, #8]
  41:Core/Src/main.c **** 	HAL_GPIO_Init(GPIOA, &GPIO_InitTure);
  84              		.loc 1 41 2 is_stmt 1 view .LVU19
  85 0034 02A9     		add	r1, sp, #8
  86 0036 2046     		mov	r0, r4
  87 0038 FFF7FEFF 		bl	HAL_GPIO_Init
  88              	.LVL1:
  42:Core/Src/main.c **** 	GPIO_InitTure.Pin = GPIO_PIN_7;
  89              		.loc 1 42 2 view .LVU20
  90              		.loc 1 42 20 is_stmt 0 view .LVU21
  91 003c 8025     		movs	r5, #128
  92 003e 0295     		str	r5, [sp, #8]
  43:Core/Src/main.c **** 	HAL_GPIO_Init(GPIOA, &GPIO_InitTure);
  93              		.loc 1 43 2 is_stmt 1 view .LVU22
  94 0040 02A9     		add	r1, sp, #8
  95 0042 2046     		mov	r0, r4
  96 0044 FFF7FEFF 		bl	HAL_GPIO_Init
  97              	.LVL2:
  44:Core/Src/main.c **** 
  45:Core/Src/main.c **** 	HAL_GPIO_WritePin(GPIOB, GPIO_PIN_5, GPIO_PIN_RESET); // PB5ç½®1ï¼Œé»˜è®¤åˆå§‹åŒ–åç¯ç­
  98              		.loc 1 45 2 view .LVU23
  99 0048 04F58064 		add	r4, r4, #1024
 100 004c 0022     		movs	r2, #0
 101 004e 3946     		mov	r1, r7
 102 0050 2046     		mov	r0, r4
 103 0052 FFF7FEFF 		bl	HAL_GPIO_WritePin
 104              	.LVL3:
  46:Core/Src/main.c **** 	HAL_GPIO_WritePin(GPIOB, GPIO_PIN_6, GPIO_PIN_RESET);
 105              		.loc 1 46 2 view .LVU24
 106 0056 0022     		movs	r2, #0
 107 0058 3146     		mov	r1, r6
 108 005a 2046     		mov	r0, r4
 109 005c FFF7FEFF 		bl	HAL_GPIO_WritePin
 110              	.LVL4:
  47:Core/Src/main.c **** 	HAL_GPIO_WritePin(GPIOB, GPIO_PIN_7, GPIO_PIN_RESET);
 111              		.loc 1 47 2 view .LVU25
 112 0060 0022     		movs	r2, #0
 113 0062 2946     		mov	r1, r5
 114 0064 2046     		mov	r0, r4
 115 0066 FFF7FEFF 		bl	HAL_GPIO_WritePin
 116              	.LVL5:
  48:Core/Src/main.c **** }
 117              		.loc 1 48 1 is_stmt 0 view .LVU26
 118 006a 07B0     		add	sp, sp, #28
 119              	.LCFI2:
 120              		.cfi_def_cfa_offset 20
 121              		@ sp needed
 122 006c F0BD     		pop	{r4, r5, r6, r7, pc}
 123              	.L4:
 124 006e 00BF     		.align	2
ARM GAS  C:\Users\11655\AppData\Local\Temp\ccZrn4DB.s 			page 4


 125              	.L3:
 126 0070 00100240 		.word	1073876992
 127 0074 00080140 		.word	1073809408
 128              		.cfi_endproc
 129              	.LFE65:
 131              		.section	.text.PWM_MG90S,"ax",%progbits
 132              		.align	1
 133              		.global	PWM_MG90S
 134              		.syntax unified
 135              		.thumb
 136              		.thumb_func
 138              	PWM_MG90S:
 139              	.LVL6:
 140              	.LFB66:
  49:Core/Src/main.c **** 
  50:Core/Src/main.c **** void PWM_MG90S(u32 nusa, u32 nusb, u32 nusc)
  51:Core/Src/main.c **** {
 141              		.loc 1 51 1 is_stmt 1 view -0
 142              		.cfi_startproc
 143              		@ args = 0, pretend = 0, frame = 0
 144              		@ frame_needed = 0, uses_anonymous_args = 0
 145              		.loc 1 51 1 is_stmt 0 view .LVU28
 146 0000 38B5     		push	{r3, r4, r5, lr}
 147              	.LCFI3:
 148              		.cfi_def_cfa_offset 16
 149              		.cfi_offset 3, -16
 150              		.cfi_offset 4, -12
 151              		.cfi_offset 5, -8
 152              		.cfi_offset 14, -4
 153 0002 0546     		mov	r5, r0
  52:Core/Src/main.c **** 	HAL_GPIO_WritePin(GPIOA, GPIO_PIN_5, GPIO_PIN_SET);
 154              		.loc 1 52 2 is_stmt 1 view .LVU29
 155 0004 134C     		ldr	r4, .L7
 156 0006 0122     		movs	r2, #1
 157              	.LVL7:
 158              		.loc 1 52 2 is_stmt 0 view .LVU30
 159 0008 2021     		movs	r1, #32
 160              	.LVL8:
 161              		.loc 1 52 2 view .LVU31
 162 000a 2046     		mov	r0, r4
 163              	.LVL9:
 164              		.loc 1 52 2 view .LVU32
 165 000c FFF7FEFF 		bl	HAL_GPIO_WritePin
 166              	.LVL10:
  53:Core/Src/main.c **** 	HAL_GPIO_WritePin(GPIOA, GPIO_PIN_6, GPIO_PIN_SET);
 167              		.loc 1 53 2 is_stmt 1 view .LVU33
 168 0010 0122     		movs	r2, #1
 169 0012 4021     		movs	r1, #64
 170 0014 2046     		mov	r0, r4
 171 0016 FFF7FEFF 		bl	HAL_GPIO_WritePin
 172              	.LVL11:
  54:Core/Src/main.c **** 	HAL_GPIO_WritePin(GPIOA, GPIO_PIN_7, GPIO_PIN_SET);
 173              		.loc 1 54 2 view .LVU34
 174 001a 0122     		movs	r2, #1
 175 001c 8021     		movs	r1, #128
 176 001e 2046     		mov	r0, r4
 177 0020 FFF7FEFF 		bl	HAL_GPIO_WritePin
ARM GAS  C:\Users\11655\AppData\Local\Temp\ccZrn4DB.s 			page 5


 178              	.LVL12:
  55:Core/Src/main.c **** 	delay_us(nusa); // åˆ©ç”¨delay_us(u32 nus)å»¶è¿Ÿnus ms
 179              		.loc 1 55 2 view .LVU35
 180 0024 2846     		mov	r0, r5
 181 0026 FFF7FEFF 		bl	delay_us
 182              	.LVL13:
  56:Core/Src/main.c **** 	HAL_GPIO_WritePin(GPIOA, GPIO_PIN_5, GPIO_PIN_RESET);
 183              		.loc 1 56 2 view .LVU36
 184 002a 0022     		movs	r2, #0
 185 002c 2021     		movs	r1, #32
 186 002e 2046     		mov	r0, r4
 187 0030 FFF7FEFF 		bl	HAL_GPIO_WritePin
 188              	.LVL14:
  57:Core/Src/main.c **** 	HAL_GPIO_WritePin(GPIOA, GPIO_PIN_6, GPIO_PIN_RESET);
 189              		.loc 1 57 2 view .LVU37
 190 0034 0022     		movs	r2, #0
 191 0036 4021     		movs	r1, #64
 192 0038 2046     		mov	r0, r4
 193 003a FFF7FEFF 		bl	HAL_GPIO_WritePin
 194              	.LVL15:
  58:Core/Src/main.c **** 	HAL_GPIO_WritePin(GPIOA, GPIO_PIN_7, GPIO_PIN_RESET);
 195              		.loc 1 58 2 view .LVU38
 196 003e 0022     		movs	r2, #0
 197 0040 8021     		movs	r1, #128
 198 0042 2046     		mov	r0, r4
 199 0044 FFF7FEFF 		bl	HAL_GPIO_WritePin
 200              	.LVL16:
  59:Core/Src/main.c **** 	delay_us(20000 - nusa); // åˆ©ç”¨delay_us(u32 nus)å»¶è¿Ÿ
 201              		.loc 1 59 2 view .LVU39
 202 0048 C5F59C40 		rsb	r0, r5, #19968
 203 004c 2030     		adds	r0, r0, #32
 204 004e FFF7FEFF 		bl	delay_us
 205              	.LVL17:
  60:Core/Src/main.c **** 
  61:Core/Src/main.c **** 	// HAL_GPIO_WritePin(GPIOA, GPIO_PIN_6, GPIO_PIN_SET);
  62:Core/Src/main.c **** 	// delay_us(nusb); // åˆ©ç”¨delay_us(u32 nus)å»¶è¿Ÿnus ms
  63:Core/Src/main.c **** 	// HAL_GPIO_WritePin(GPIOA, GPIO_PIN_6, GPIO_PIN_RESET);
  64:Core/Src/main.c **** 	// delay_us(20000 - nusb); // åˆ©ç”¨delay_us(u32 nus)å»¶è¿Ÿ
  65:Core/Src/main.c **** 
  66:Core/Src/main.c **** 	// HAL_GPIO_WritePin(GPIOA, GPIO_PIN_7, GPIO_PIN_SET);
  67:Core/Src/main.c **** 	// delay_us(nusc); // åˆ©ç”¨delay_us(u32 nus)å»¶è¿Ÿnus ms
  68:Core/Src/main.c **** 	// HAL_GPIO_WritePin(GPIOA, GPIO_PIN_7, GPIO_PIN_RESET);
  69:Core/Src/main.c **** 	// delay_us(20000 - nusc); // åˆ©ç”¨delay_us(u32 nus)å»¶è¿Ÿ
  70:Core/Src/main.c **** }
 206              		.loc 1 70 1 is_stmt 0 view .LVU40
 207 0052 38BD     		pop	{r3, r4, r5, pc}
 208              	.LVL18:
 209              	.L8:
 210              		.loc 1 70 1 view .LVU41
 211              		.align	2
 212              	.L7:
 213 0054 00080140 		.word	1073809408
 214              		.cfi_endproc
 215              	.LFE66:
 217              		.section	.text.Beep_Init,"ax",%progbits
 218              		.align	1
 219              		.global	Beep_Init
ARM GAS  C:\Users\11655\AppData\Local\Temp\ccZrn4DB.s 			page 6


 220              		.syntax unified
 221              		.thumb
 222              		.thumb_func
 224              	Beep_Init:
 225              	.LFB67:
  71:Core/Src/main.c **** 
  72:Core/Src/main.c **** /**
  73:Core/Src/main.c ****  * @brief	åˆ©ç”¨HALåº“å‡½æ•°è¿›è¡ŒBeepåˆå§‹åŒ–
  74:Core/Src/main.c ****  * @param 	none
  75:Core/Src/main.c ****  * @arg		none
  76:Core/Src/main.c ****  * @note  	å…ˆå¼€å¯GPIOæ—¶é’Ÿï¼Œå†åˆ©ç”¨HAL_GPIO_Init();å‡½æ•°è¿›è¡Œç®¡è„šåˆå§‹åŒ–ï¼Œå†è®¾ç½®é»
  77:Core/Src/main.c ****  * @retval	none
  78:Core/Src/main.c ****  */
  79:Core/Src/main.c **** void Beep_Init(void)
  80:Core/Src/main.c **** {
 226              		.loc 1 80 1 is_stmt 1 view -0
 227              		.cfi_startproc
 228              		@ args = 0, pretend = 0, frame = 24
 229              		@ frame_needed = 0, uses_anonymous_args = 0
 230 0000 30B5     		push	{r4, r5, lr}
 231              	.LCFI4:
 232              		.cfi_def_cfa_offset 12
 233              		.cfi_offset 4, -12
 234              		.cfi_offset 5, -8
 235              		.cfi_offset 14, -4
 236 0002 87B0     		sub	sp, sp, #28
 237              	.LCFI5:
 238              		.cfi_def_cfa_offset 40
  81:Core/Src/main.c **** 	GPIO_InitTypeDef GPIO_InitTure;
 239              		.loc 1 81 2 view .LVU43
  82:Core/Src/main.c **** 
  83:Core/Src/main.c **** 	__HAL_RCC_GPIOB_CLK_ENABLE(); // å¼€å¯GPIOBæ—¶é’Ÿ
 240              		.loc 1 83 2 view .LVU44
 241              	.LBB3:
 242              		.loc 1 83 2 view .LVU45
 243              		.loc 1 83 2 view .LVU46
 244 0004 0E4B     		ldr	r3, .L11
 245 0006 9A69     		ldr	r2, [r3, #24]
 246 0008 42F00802 		orr	r2, r2, #8
 247 000c 9A61     		str	r2, [r3, #24]
 248              		.loc 1 83 2 view .LVU47
 249 000e 9B69     		ldr	r3, [r3, #24]
 250 0010 03F00803 		and	r3, r3, #8
 251 0014 0193     		str	r3, [sp, #4]
 252              		.loc 1 83 2 view .LVU48
 253 0016 019B     		ldr	r3, [sp, #4]
 254              	.LBE3:
 255              		.loc 1 83 2 view .LVU49
  84:Core/Src/main.c **** 	/*ARMçš„èŠ¯ç‰‡éƒ½æ˜¯è¿™æ ·ï¼Œå¤–è®¾é€šå¸¸éƒ½æ˜¯ç»™äº†æ—¶é’Ÿåï¼Œæ‰èƒ½è®¾ç½®å®ƒçš„å¯„å­˜å™¨,è¿™ä¹
  85:Core/Src/main.c **** 
  86:Core/Src/main.c **** 	/*è¿›è¡Œç»“æ„ä½“å†…çš„å‚æ•°é…ç½®ï¼Œå…ˆæ‰¾åˆ°ä¸‹é¢HAL_GPIO_Init();çš„å®šä¹‰å¤„ï¼Œå†å¯¹å®šä¹‰å¤
  87:Core/Src/main.c **** 	GPIO_InitTure.Mode = GPIO_MODE_OUTPUT_PP;	// æ¨æŒ½è¾“å‡º
 256              		.loc 1 87 2 view .LVU50
 257              		.loc 1 87 21 is_stmt 0 view .LVU51
 258 0018 0123     		movs	r3, #1
 259 001a 0393     		str	r3, [sp, #12]
  88:Core/Src/main.c **** 	GPIO_InitTure.Pull = GPIO_PULLUP;			// ä¸Šæ‹‰
ARM GAS  C:\Users\11655\AppData\Local\Temp\ccZrn4DB.s 			page 7


 260              		.loc 1 88 2 is_stmt 1 view .LVU52
 261              		.loc 1 88 21 is_stmt 0 view .LVU53
 262 001c 0493     		str	r3, [sp, #16]
  89:Core/Src/main.c **** 	GPIO_InitTure.Speed = GPIO_SPEED_FREQ_HIGH; // é«˜é€Ÿ
 263              		.loc 1 89 2 is_stmt 1 view .LVU54
 264              		.loc 1 89 22 is_stmt 0 view .LVU55
 265 001e 0323     		movs	r3, #3
 266 0020 0593     		str	r3, [sp, #20]
  90:Core/Src/main.c **** 	GPIO_InitTure.Pin = GPIO_PIN_8;				// è®¾ç½®GPIOxçš„5å£
 267              		.loc 1 90 2 is_stmt 1 view .LVU56
 268              		.loc 1 90 20 is_stmt 0 view .LVU57
 269 0022 4FF48075 		mov	r5, #256
 270 0026 0295     		str	r5, [sp, #8]
  91:Core/Src/main.c **** 
  92:Core/Src/main.c **** 	HAL_GPIO_Init(GPIOB, &GPIO_InitTure); // å…ˆåœ¨ä¸Šé¢å››è¡Œè®¾ç½®GPIOçš„æ¨¡å¼ï¼Œä¸Šä¸‹æ‹‰ï¼Œé€Ÿåº
 271              		.loc 1 92 2 is_stmt 1 view .LVU58
 272 0028 064C     		ldr	r4, .L11+4
 273 002a 02A9     		add	r1, sp, #8
 274 002c 2046     		mov	r0, r4
 275 002e FFF7FEFF 		bl	HAL_GPIO_Init
 276              	.LVL19:
  93:Core/Src/main.c **** 
  94:Core/Src/main.c **** 	HAL_GPIO_WritePin(GPIOB, GPIO_PIN_8, GPIO_PIN_RESET); // PB8ç½®0ï¼Œé»˜è®¤åˆå§‹åŒ–åä¸å“
 277              		.loc 1 94 2 view .LVU59
 278 0032 0022     		movs	r2, #0
 279 0034 2946     		mov	r1, r5
 280 0036 2046     		mov	r0, r4
 281 0038 FFF7FEFF 		bl	HAL_GPIO_WritePin
 282              	.LVL20:
  95:Core/Src/main.c **** }
 283              		.loc 1 95 1 is_stmt 0 view .LVU60
 284 003c 07B0     		add	sp, sp, #28
 285              	.LCFI6:
 286              		.cfi_def_cfa_offset 12
 287              		@ sp needed
 288 003e 30BD     		pop	{r4, r5, pc}
 289              	.L12:
 290              		.align	2
 291              	.L11:
 292 0040 00100240 		.word	1073876992
 293 0044 000C0140 		.word	1073810432
 294              		.cfi_endproc
 295              	.LFE67:
 297              		.section	.text.LED_Init,"ax",%progbits
 298              		.align	1
 299              		.global	LED_Init
 300              		.syntax unified
 301              		.thumb
 302              		.thumb_func
 304              	LED_Init:
 305              	.LFB68:
  96:Core/Src/main.c **** 
  97:Core/Src/main.c **** /**
  98:Core/Src/main.c ****  * @brief	åˆ©ç”¨HALåº“å‡½æ•°è¿›è¡ŒLEDåˆå§‹åŒ–
  99:Core/Src/main.c ****  * @param 	none
 100:Core/Src/main.c ****  * @arg		none
 101:Core/Src/main.c ****  * @note  	å…ˆå¼€å¯GPIOæ—¶é’Ÿï¼Œå†åˆ©ç”¨HAL_GPIO_Init();å‡½æ•°è¿›è¡Œç®¡è„šåˆå§‹åŒ–ï¼Œå†è®¾ç½®é»
ARM GAS  C:\Users\11655\AppData\Local\Temp\ccZrn4DB.s 			page 8


 102:Core/Src/main.c ****  * @retval	none
 103:Core/Src/main.c ****  */
 104:Core/Src/main.c **** void LED_Init(void)
 105:Core/Src/main.c **** {
 306              		.loc 1 105 1 is_stmt 1 view -0
 307              		.cfi_startproc
 308              		@ args = 0, pretend = 0, frame = 24
 309              		@ frame_needed = 0, uses_anonymous_args = 0
 310 0000 F0B5     		push	{r4, r5, r6, r7, lr}
 311              	.LCFI7:
 312              		.cfi_def_cfa_offset 20
 313              		.cfi_offset 4, -20
 314              		.cfi_offset 5, -16
 315              		.cfi_offset 6, -12
 316              		.cfi_offset 7, -8
 317              		.cfi_offset 14, -4
 318 0002 87B0     		sub	sp, sp, #28
 319              	.LCFI8:
 320              		.cfi_def_cfa_offset 48
 106:Core/Src/main.c **** 	GPIO_InitTypeDef GPIO_InitTure;
 321              		.loc 1 106 2 view .LVU62
 107:Core/Src/main.c **** 
 108:Core/Src/main.c **** 	__HAL_RCC_GPIOB_CLK_ENABLE(); // å¼€å¯GPIOBæ—¶é’Ÿ
 322              		.loc 1 108 2 view .LVU63
 323              	.LBB4:
 324              		.loc 1 108 2 view .LVU64
 325              		.loc 1 108 2 view .LVU65
 326 0004 174B     		ldr	r3, .L15
 327 0006 9A69     		ldr	r2, [r3, #24]
 328 0008 42F00802 		orr	r2, r2, #8
 329 000c 9A61     		str	r2, [r3, #24]
 330              		.loc 1 108 2 view .LVU66
 331 000e 9A69     		ldr	r2, [r3, #24]
 332 0010 02F00802 		and	r2, r2, #8
 333 0014 0092     		str	r2, [sp]
 334              		.loc 1 108 2 view .LVU67
 335 0016 009A     		ldr	r2, [sp]
 336              	.LBE4:
 337              		.loc 1 108 2 view .LVU68
 109:Core/Src/main.c **** 	__HAL_RCC_GPIOE_CLK_ENABLE(); // å¼€å¯GPIOEæ—¶é’Ÿ
 338              		.loc 1 109 2 view .LVU69
 339              	.LBB5:
 340              		.loc 1 109 2 view .LVU70
 341              		.loc 1 109 2 view .LVU71
 342 0018 9A69     		ldr	r2, [r3, #24]
 343 001a 42F04002 		orr	r2, r2, #64
 344 001e 9A61     		str	r2, [r3, #24]
 345              		.loc 1 109 2 view .LVU72
 346 0020 9B69     		ldr	r3, [r3, #24]
 347 0022 03F04003 		and	r3, r3, #64
 348 0026 0193     		str	r3, [sp, #4]
 349              		.loc 1 109 2 view .LVU73
 350 0028 019B     		ldr	r3, [sp, #4]
 351              	.LBE5:
 352              		.loc 1 109 2 view .LVU74
 110:Core/Src/main.c **** 	/*ARMçš„èŠ¯ç‰‡éƒ½æ˜¯è¿™æ ·ï¼Œå¤–è®¾é€šå¸¸éƒ½æ˜¯ç»™äº†æ—¶é’Ÿåï¼Œæ‰èƒ½è®¾ç½®å®ƒçš„å¯„å­˜å™¨,è¿™ä¹
 111:Core/Src/main.c **** 
ARM GAS  C:\Users\11655\AppData\Local\Temp\ccZrn4DB.s 			page 9


 112:Core/Src/main.c **** 	/*è¿›è¡Œç»“æ„ä½“å†…çš„å‚æ•°é…ç½®ï¼Œå…ˆæ‰¾åˆ°ä¸‹é¢HAL_GPIO_Init();çš„å®šä¹‰å¤„ï¼Œå†å¯¹å®šä¹‰å¤
 113:Core/Src/main.c **** 	GPIO_InitTure.Mode = GPIO_MODE_OUTPUT_PP;	// æ¨æŒ½è¾“å‡º
 353              		.loc 1 113 2 view .LVU75
 354              		.loc 1 113 21 is_stmt 0 view .LVU76
 355 002a 0124     		movs	r4, #1
 356 002c 0394     		str	r4, [sp, #12]
 114:Core/Src/main.c **** 	GPIO_InitTure.Pull = GPIO_PULLUP;			// ä¸Šæ‹‰
 357              		.loc 1 114 2 is_stmt 1 view .LVU77
 358              		.loc 1 114 21 is_stmt 0 view .LVU78
 359 002e 0494     		str	r4, [sp, #16]
 115:Core/Src/main.c **** 	GPIO_InitTure.Speed = GPIO_SPEED_FREQ_HIGH; // é«˜é€Ÿ
 360              		.loc 1 115 2 is_stmt 1 view .LVU79
 361              		.loc 1 115 22 is_stmt 0 view .LVU80
 362 0030 0323     		movs	r3, #3
 363 0032 0593     		str	r3, [sp, #20]
 116:Core/Src/main.c **** 	GPIO_InitTure.Pin = GPIO_PIN_5;				// è®¾ç½®GPIOxçš„5å£
 364              		.loc 1 116 2 is_stmt 1 view .LVU81
 365              		.loc 1 116 20 is_stmt 0 view .LVU82
 366 0034 2025     		movs	r5, #32
 367 0036 0295     		str	r5, [sp, #8]
 117:Core/Src/main.c **** 
 118:Core/Src/main.c **** 	HAL_GPIO_Init(GPIOB, &GPIO_InitTure); // å…ˆåœ¨ä¸Šé¢å››è¡Œè®¾ç½®GPIOçš„æ¨¡å¼ï¼Œä¸Šä¸‹æ‹‰ï¼Œé€Ÿåº
 368              		.loc 1 118 2 is_stmt 1 view .LVU83
 369 0038 0B4F     		ldr	r7, .L15+4
 370 003a 02A9     		add	r1, sp, #8
 371 003c 3846     		mov	r0, r7
 372 003e FFF7FEFF 		bl	HAL_GPIO_Init
 373              	.LVL21:
 119:Core/Src/main.c **** 	HAL_GPIO_Init(GPIOE, &GPIO_InitTure); // GPIOEç®¡è„šåˆå§‹åŒ–
 374              		.loc 1 119 2 view .LVU84
 375 0042 0A4E     		ldr	r6, .L15+8
 376 0044 02A9     		add	r1, sp, #8
 377 0046 3046     		mov	r0, r6
 378 0048 FFF7FEFF 		bl	HAL_GPIO_Init
 379              	.LVL22:
 120:Core/Src/main.c **** 
 121:Core/Src/main.c **** 	HAL_GPIO_WritePin(GPIOB, GPIO_PIN_5, GPIO_PIN_SET); // PB5ç½®1ï¼Œé»˜è®¤åˆå§‹åŒ–åç¯ç­
 380              		.loc 1 121 2 view .LVU85
 381 004c 2246     		mov	r2, r4
 382 004e 2946     		mov	r1, r5
 383 0050 3846     		mov	r0, r7
 384 0052 FFF7FEFF 		bl	HAL_GPIO_WritePin
 385              	.LVL23:
 122:Core/Src/main.c **** 	HAL_GPIO_WritePin(GPIOE, GPIO_PIN_5, GPIO_PIN_SET); // PE5ç½®1ï¼Œé»˜è®¤åˆå§‹åŒ–åç¯ç­
 386              		.loc 1 122 2 view .LVU86
 387 0056 2246     		mov	r2, r4
 388 0058 2946     		mov	r1, r5
 389 005a 3046     		mov	r0, r6
 390 005c FFF7FEFF 		bl	HAL_GPIO_WritePin
 391              	.LVL24:
 123:Core/Src/main.c **** }
 392              		.loc 1 123 1 is_stmt 0 view .LVU87
 393 0060 07B0     		add	sp, sp, #28
 394              	.LCFI9:
 395              		.cfi_def_cfa_offset 20
 396              		@ sp needed
 397 0062 F0BD     		pop	{r4, r5, r6, r7, pc}
ARM GAS  C:\Users\11655\AppData\Local\Temp\ccZrn4DB.s 			page 10


 398              	.L16:
 399              		.align	2
 400              	.L15:
 401 0064 00100240 		.word	1073876992
 402 0068 000C0140 		.word	1073810432
 403 006c 00180140 		.word	1073813504
 404              		.cfi_endproc
 405              	.LFE68:
 407              		.section	.text.Key_Init,"ax",%progbits
 408              		.align	1
 409              		.global	Key_Init
 410              		.syntax unified
 411              		.thumb
 412              		.thumb_func
 414              	Key_Init:
 415              	.LFB69:
 124:Core/Src/main.c **** 
 125:Core/Src/main.c **** /**
 126:Core/Src/main.c ****  * @brief	åˆ©ç”¨HALåº“å‡½æ•°è¿›è¡ŒKeyåˆå§‹åŒ–
 127:Core/Src/main.c ****  * @param 	none
 128:Core/Src/main.c ****  * @arg		none
 129:Core/Src/main.c ****  * @note  	å…ˆå¼€å¯GPIOæ—¶é’Ÿï¼Œå†åˆ©ç”¨HAL_GPIO_Init();å‡½æ•°è¿›è¡Œç®¡è„šåˆå§‹åŒ–,æ³¨æ„ä¸Šä¸‹æ
 130:Core/Src/main.c ****  * @retval	none
 131:Core/Src/main.c ****  */
 132:Core/Src/main.c **** void Key_Init(void)
 133:Core/Src/main.c **** {
 416              		.loc 1 133 1 is_stmt 1 view -0
 417              		.cfi_startproc
 418              		@ args = 0, pretend = 0, frame = 24
 419              		@ frame_needed = 0, uses_anonymous_args = 0
 420 0000 10B5     		push	{r4, lr}
 421              	.LCFI10:
 422              		.cfi_def_cfa_offset 8
 423              		.cfi_offset 4, -8
 424              		.cfi_offset 14, -4
 425 0002 86B0     		sub	sp, sp, #24
 426              	.LCFI11:
 427              		.cfi_def_cfa_offset 32
 134:Core/Src/main.c **** 	GPIO_InitTypeDef GPIO_InitTure;
 428              		.loc 1 134 2 view .LVU89
 135:Core/Src/main.c **** 
 136:Core/Src/main.c **** 	__HAL_RCC_GPIOA_CLK_ENABLE(); // å¼€å¯GPIOAæ—¶é’Ÿ
 429              		.loc 1 136 2 view .LVU90
 430              	.LBB6:
 431              		.loc 1 136 2 view .LVU91
 432              		.loc 1 136 2 view .LVU92
 433 0004 134B     		ldr	r3, .L19
 434 0006 9A69     		ldr	r2, [r3, #24]
 435 0008 42F00402 		orr	r2, r2, #4
 436 000c 9A61     		str	r2, [r3, #24]
 437              		.loc 1 136 2 view .LVU93
 438 000e 9A69     		ldr	r2, [r3, #24]
 439 0010 02F00402 		and	r2, r2, #4
 440 0014 0092     		str	r2, [sp]
 441              		.loc 1 136 2 view .LVU94
 442 0016 009A     		ldr	r2, [sp]
 443              	.LBE6:
ARM GAS  C:\Users\11655\AppData\Local\Temp\ccZrn4DB.s 			page 11


 444              		.loc 1 136 2 view .LVU95
 137:Core/Src/main.c **** 	__HAL_RCC_GPIOE_CLK_ENABLE(); // å¼€å¯GPIOEæ—¶é’Ÿ
 445              		.loc 1 137 2 view .LVU96
 446              	.LBB7:
 447              		.loc 1 137 2 view .LVU97
 448              		.loc 1 137 2 view .LVU98
 449 0018 9A69     		ldr	r2, [r3, #24]
 450 001a 42F04002 		orr	r2, r2, #64
 451 001e 9A61     		str	r2, [r3, #24]
 452              		.loc 1 137 2 view .LVU99
 453 0020 9B69     		ldr	r3, [r3, #24]
 454 0022 03F04003 		and	r3, r3, #64
 455 0026 0193     		str	r3, [sp, #4]
 456              		.loc 1 137 2 view .LVU100
 457 0028 019B     		ldr	r3, [sp, #4]
 458              	.LBE7:
 459              		.loc 1 137 2 view .LVU101
 138:Core/Src/main.c **** 	/*ARMçš„èŠ¯ç‰‡éƒ½æ˜¯è¿™æ ·ï¼Œå¤–è®¾é€šå¸¸éƒ½æ˜¯ç»™äº†æ—¶é’Ÿåï¼Œæ‰èƒ½è®¾ç½®å®ƒçš„å¯„å­˜å™¨,è¿™ä¹
 139:Core/Src/main.c **** 
 140:Core/Src/main.c **** 	/*è¿›è¡Œç»“æ„ä½“å†…çš„å‚æ•°é…ç½®ï¼Œå…ˆæ‰¾åˆ°ä¸‹é¢HAL_GPIO_Init();çš„å®šä¹‰å¤„ï¼Œå†å¯¹å®šä¹‰å¤
 141:Core/Src/main.c **** 	GPIO_InitTure.Mode = GPIO_MODE_INPUT;		// è¾“å…¥
 460              		.loc 1 141 2 view .LVU102
 461              		.loc 1 141 21 is_stmt 0 view .LVU103
 462 002a 0023     		movs	r3, #0
 463 002c 0393     		str	r3, [sp, #12]
 142:Core/Src/main.c **** 	GPIO_InitTure.Pull = GPIO_PULLDOWN;			// ä¸‹æ‹‰
 464              		.loc 1 142 2 is_stmt 1 view .LVU104
 465              		.loc 1 142 21 is_stmt 0 view .LVU105
 466 002e 0223     		movs	r3, #2
 467 0030 0493     		str	r3, [sp, #16]
 143:Core/Src/main.c **** 	GPIO_InitTure.Speed = GPIO_SPEED_FREQ_HIGH; // é«˜é€Ÿ
 468              		.loc 1 143 2 is_stmt 1 view .LVU106
 469              		.loc 1 143 22 is_stmt 0 view .LVU107
 470 0032 0323     		movs	r3, #3
 471 0034 0593     		str	r3, [sp, #20]
 144:Core/Src/main.c **** 	GPIO_InitTure.Pin = GPIO_PIN_0;				// è®¾ç½®GPIOxçš„0å£
 472              		.loc 1 144 2 is_stmt 1 view .LVU108
 473              		.loc 1 144 20 is_stmt 0 view .LVU109
 474 0036 0124     		movs	r4, #1
 475 0038 0294     		str	r4, [sp, #8]
 145:Core/Src/main.c **** 
 146:Core/Src/main.c **** 	HAL_GPIO_Init(GPIOA, &GPIO_InitTure);		 // GPIOAç®¡è„šåˆå§‹åŒ–
 476              		.loc 1 146 2 is_stmt 1 view .LVU110
 477 003a 02A9     		add	r1, sp, #8
 478 003c 0648     		ldr	r0, .L19+4
 479 003e FFF7FEFF 		bl	HAL_GPIO_Init
 480              	.LVL25:
 147:Core/Src/main.c **** 	GPIO_InitTure.Pull = GPIO_PULLUP;			 // ä¸Šæ‹‰
 481              		.loc 1 147 2 view .LVU111
 482              		.loc 1 147 21 is_stmt 0 view .LVU112
 483 0042 0494     		str	r4, [sp, #16]
 148:Core/Src/main.c **** 	GPIO_InitTure.Pin = GPIO_PIN_3 | GPIO_PIN_4; // è®¾ç½®GPIOxçš„3å£,è®¾ç½®GPIOxçš„4å£
 484              		.loc 1 148 2 is_stmt 1 view .LVU113
 485              		.loc 1 148 20 is_stmt 0 view .LVU114
 486 0044 1823     		movs	r3, #24
 487 0046 0293     		str	r3, [sp, #8]
 149:Core/Src/main.c **** 	HAL_GPIO_Init(GPIOE, &GPIO_InitTure);		 // GPIOEç®¡è„šåˆå§‹åŒ–
ARM GAS  C:\Users\11655\AppData\Local\Temp\ccZrn4DB.s 			page 12


 488              		.loc 1 149 2 is_stmt 1 view .LVU115
 489 0048 02A9     		add	r1, sp, #8
 490 004a 0448     		ldr	r0, .L19+8
 491 004c FFF7FEFF 		bl	HAL_GPIO_Init
 492              	.LVL26:
 150:Core/Src/main.c **** }
 493              		.loc 1 150 1 is_stmt 0 view .LVU116
 494 0050 06B0     		add	sp, sp, #24
 495              	.LCFI12:
 496              		.cfi_def_cfa_offset 8
 497              		@ sp needed
 498 0052 10BD     		pop	{r4, pc}
 499              	.L20:
 500              		.align	2
 501              	.L19:
 502 0054 00100240 		.word	1073876992
 503 0058 00080140 		.word	1073809408
 504 005c 00180140 		.word	1073813504
 505              		.cfi_endproc
 506              	.LFE69:
 508              		.section	.text.Key_Scan,"ax",%progbits
 509              		.align	1
 510              		.global	Key_Scan
 511              		.syntax unified
 512              		.thumb
 513              		.thumb_func
 515              	Key_Scan:
 516              	.LVL27:
 517              	.LFB70:
 151:Core/Src/main.c **** 
 152:Core/Src/main.c **** /**
 153:Core/Src/main.c ****  * @brief	æŒ‰é”®æ‰«æå–Šå‡º
 154:Core/Src/main.c ****  * @param 	MODE;KEY;
 155:Core/Src/main.c ****  * @arg		MODE = 0ä¸ºå•æ¬¡æ‰«æï¼Œ MODE = 1ä¸ºè¿ç»­æ‰«æï¼›Keyxä¸ºæ‰«æxæŒ‰é”®
 156:Core/Src/main.c ****  * @note
 157:Core/Src/main.c ****  * @retval	Key_up,æŒ‰é”®æ˜¯å¦æ¾å¼€ï¼Œ0å¦ï¼Œ1æ˜¯
 158:Core/Src/main.c ****  */
 159:Core/Src/main.c **** u8 Key_Scan(u8 MODE)
 160:Core/Src/main.c **** {
 518              		.loc 1 160 1 is_stmt 1 view -0
 519              		.cfi_startproc
 520              		@ args = 0, pretend = 0, frame = 0
 521              		@ frame_needed = 0, uses_anonymous_args = 0
 522              		.loc 1 160 1 is_stmt 0 view .LVU118
 523 0000 38B5     		push	{r3, r4, r5, lr}
 524              	.LCFI13:
 525              		.cfi_def_cfa_offset 16
 526              		.cfi_offset 3, -16
 527              		.cfi_offset 4, -12
 528              		.cfi_offset 5, -8
 529              		.cfi_offset 14, -4
 530 0002 0546     		mov	r5, r0
 161:Core/Src/main.c **** 	static u8 Key_up = 1; // é»˜è®¤èµ‹å€¼ä¸ºæ¾å¼€,staticå˜é‡åªåˆå§‹åŒ–ä¸€æ¬¡
 531              		.loc 1 161 2 is_stmt 1 view .LVU119
 162:Core/Src/main.c **** 	u16 Key_Number;		  // æ£€æŸ¥æŒ‰ä¸‹å‡ ä¸ªæŒ‰é”®
 532              		.loc 1 162 2 view .LVU120
 163:Core/Src/main.c **** 
ARM GAS  C:\Users\11655\AppData\Local\Temp\ccZrn4DB.s 			page 13


 164:Core/Src/main.c **** 	Key_Number = HAL_GPIO_ReadPin(GPIOA, GPIO_PIN_0) * 4 + !HAL_GPIO_ReadPin(GPIOE, GPIO_PIN_3) * 2 + 
 533              		.loc 1 164 2 view .LVU121
 534              		.loc 1 164 15 is_stmt 0 view .LVU122
 535 0004 0121     		movs	r1, #1
 536 0006 2248     		ldr	r0, .L40
 537              	.LVL28:
 538              		.loc 1 164 15 view .LVU123
 539 0008 FFF7FEFF 		bl	HAL_GPIO_ReadPin
 540              	.LVL29:
 541              		.loc 1 164 55 view .LVU124
 542 000c 8400     		lsls	r4, r0, #2
 543 000e A4B2     		uxth	r4, r4
 544              		.loc 1 164 58 view .LVU125
 545 0010 0821     		movs	r1, #8
 546 0012 2048     		ldr	r0, .L40+4
 547 0014 FFF7FEFF 		bl	HAL_GPIO_ReadPin
 548              	.LVL30:
 549              		.loc 1 164 55 view .LVU126
 550 0018 88B9     		cbnz	r0, .L35
 551 001a 0223     		movs	r3, #2
 552              	.L22:
 553              		.loc 1 164 55 discriminator 4 view .LVU127
 554 001c 1C44     		add	r4, r4, r3
 555 001e A4B2     		uxth	r4, r4
 556              		.loc 1 164 101 discriminator 4 view .LVU128
 557 0020 1021     		movs	r1, #16
 558 0022 1C48     		ldr	r0, .L40+4
 559 0024 FFF7FEFF 		bl	HAL_GPIO_ReadPin
 560              	.LVL31:
 561              		.loc 1 164 13 discriminator 4 view .LVU129
 562 0028 0028     		cmp	r0, #0
 563 002a 08BF     		it	eq
 564 002c 0134     		addeq	r4, r4, #1
 565 002e A4B2     		uxth	r4, r4
 566              	.LVL32:
 165:Core/Src/main.c **** 	if (MODE == 1)																															// æ”¯æŒè¿æŒ‰
 567              		.loc 1 165 2 is_stmt 1 discriminator 4 view .LVU130
 568              		.loc 1 165 5 is_stmt 0 discriminator 4 view .LVU131
 569 0030 012D     		cmp	r5, #1
 570 0032 06D0     		beq	.L39
 166:Core/Src/main.c **** 	{
 167:Core/Src/main.c **** 		Key_up = 1;
 168:Core/Src/main.c **** 	}
 169:Core/Src/main.c **** 	else if (Key_Number == 0) // æ”¯æŒå•æ¬¡ç‚¹æŒ‰
 571              		.loc 1 169 7 is_stmt 1 view .LVU132
 572              		.loc 1 169 10 is_stmt 0 view .LVU133
 573 0034 44B9     		cbnz	r4, .L24
 170:Core/Src/main.c **** 	{
 171:Core/Src/main.c **** 		Key_up = 1;
 574              		.loc 1 171 3 is_stmt 1 view .LVU134
 575              		.loc 1 171 10 is_stmt 0 view .LVU135
 576 0036 184A     		ldr	r2, .L40+8
 577 0038 0121     		movs	r1, #1
 578 003a 1170     		strb	r1, [r2]
 579 003c 04E0     		b	.L24
 580              	.LVL33:
 581              	.L35:
ARM GAS  C:\Users\11655\AppData\Local\Temp\ccZrn4DB.s 			page 14


 164:Core/Src/main.c **** 	if (MODE == 1)																															// æ”¯æŒè¿æŒ‰
 582              		.loc 1 164 55 view .LVU136
 583 003e 0023     		movs	r3, #0
 584 0040 ECE7     		b	.L22
 585              	.LVL34:
 586              	.L39:
 167:Core/Src/main.c **** 	}
 587              		.loc 1 167 3 is_stmt 1 view .LVU137
 167:Core/Src/main.c **** 	}
 588              		.loc 1 167 10 is_stmt 0 view .LVU138
 589 0042 154A     		ldr	r2, .L40+8
 590 0044 0121     		movs	r1, #1
 591 0046 1170     		strb	r1, [r2]
 592              	.L24:
 172:Core/Src/main.c **** 	}
 173:Core/Src/main.c **** 
 174:Core/Src/main.c **** 	if (Key_Number && Key_up != 0) // æŒ‰ä¸‹æ£€æµ‹å’Œè¿æŒ‰æ£€æµ‹
 593              		.loc 1 174 2 is_stmt 1 view .LVU139
 594              		.loc 1 174 5 is_stmt 0 view .LVU140
 595 0048 F4B1     		cbz	r4, .L36
 596              		.loc 1 174 27 discriminator 1 view .LVU141
 597 004a 134A     		ldr	r2, .L40+8
 598 004c 1078     		ldrb	r0, [r2]	@ zero_extendqisi2
 599              		.loc 1 174 17 discriminator 1 view .LVU142
 600 004e E0B1     		cbz	r0, .L21
 175:Core/Src/main.c **** 	{
 176:Core/Src/main.c **** 		Key_up = 0;			// è®°å½•æŒ‰ä¸‹
 601              		.loc 1 176 3 is_stmt 1 view .LVU143
 602              		.loc 1 176 10 is_stmt 0 view .LVU144
 603 0050 0021     		movs	r1, #0
 604 0052 1170     		strb	r1, [r2]
 177:Core/Src/main.c **** 		switch (Key_Number) // æŒ‰ä½å‘é€å“ªäº›æŒ‰é”®æŒ‰ä¸‹
 605              		.loc 1 177 3 is_stmt 1 view .LVU145
 606 0054 631E     		subs	r3, r4, #1
 607 0056 062B     		cmp	r3, #6
 608 0058 11D8     		bhi	.L26
 609 005a DFE803F0 		tbb	[pc, r3]
 610              	.L28:
 611 005e 04       		.byte	(.L33-.L28)/2
 612 005f 17       		.byte	(.L37-.L28)/2
 613 0060 06       		.byte	(.L32-.L28)/2
 614 0061 08       		.byte	(.L31-.L28)/2
 615 0062 0A       		.byte	(.L30-.L28)/2
 616 0063 0C       		.byte	(.L29-.L28)/2
 617 0064 0E       		.byte	(.L27-.L28)/2
 618 0065 00       		.p2align 1
 619              	.L33:
 620 0066 0120     		movs	r0, #1
 621 0068 0FE0     		b	.L21
 622              	.L32:
 178:Core/Src/main.c **** 		{
 179:Core/Src/main.c **** 		case 0B0001u:
 180:Core/Src/main.c **** 			return 1;
 181:Core/Src/main.c **** 		case 0B0010u:
 182:Core/Src/main.c **** 			return 2;
 183:Core/Src/main.c **** 		case 0B0011u:
 184:Core/Src/main.c **** 			return 3;
ARM GAS  C:\Users\11655\AppData\Local\Temp\ccZrn4DB.s 			page 15


 623              		.loc 1 184 4 view .LVU146
 624              		.loc 1 184 11 is_stmt 0 view .LVU147
 625 006a 0320     		movs	r0, #3
 626 006c 0DE0     		b	.L21
 627              	.L31:
 185:Core/Src/main.c **** 		case 0B0100u:
 186:Core/Src/main.c **** 			return 4;
 628              		.loc 1 186 4 is_stmt 1 view .LVU148
 629              		.loc 1 186 11 is_stmt 0 view .LVU149
 630 006e 0420     		movs	r0, #4
 631 0070 0BE0     		b	.L21
 632              	.L30:
 187:Core/Src/main.c **** 		case 0B0101u:
 188:Core/Src/main.c **** 			return 5;
 633              		.loc 1 188 4 is_stmt 1 view .LVU150
 634              		.loc 1 188 11 is_stmt 0 view .LVU151
 635 0072 0520     		movs	r0, #5
 636 0074 09E0     		b	.L21
 637              	.L29:
 189:Core/Src/main.c **** 		case 0B0110u:
 190:Core/Src/main.c **** 			return 6;
 638              		.loc 1 190 4 is_stmt 1 view .LVU152
 639              		.loc 1 190 11 is_stmt 0 view .LVU153
 640 0076 0620     		movs	r0, #6
 641 0078 07E0     		b	.L21
 642              	.L27:
 191:Core/Src/main.c **** 		case 0B0111u:
 192:Core/Src/main.c **** 			return 7;
 643              		.loc 1 192 4 is_stmt 1 view .LVU154
 644              		.loc 1 192 11 is_stmt 0 view .LVU155
 645 007a 0720     		movs	r0, #7
 646 007c 05E0     		b	.L21
 647              	.L26:
 193:Core/Src/main.c **** 		default:
 194:Core/Src/main.c **** 			break;
 648              		.loc 1 194 4 is_stmt 1 view .LVU156
 195:Core/Src/main.c **** 		}
 196:Core/Src/main.c **** 		if (MODE == 0)
 649              		.loc 1 196 3 view .LVU157
 650              		.loc 1 196 6 is_stmt 0 view .LVU158
 651 007e 25B9     		cbnz	r5, .L21
 197:Core/Src/main.c **** 		{
 198:Core/Src/main.c **** 			delay_ms(10); // å»¶è¿Ÿ10msæŒ‰é”®æ¶ˆæŠ–ï¼ŒæŒ‰ä¸‹å’Œæ¾å¼€éƒ½è¦
 652              		.loc 1 198 4 is_stmt 1 view .LVU159
 653 0080 0A20     		movs	r0, #10
 654 0082 FFF7FEFF 		bl	delay_ms
 655              	.LVL35:
 199:Core/Src/main.c **** 		}
 200:Core/Src/main.c **** 	}
 201:Core/Src/main.c **** 	else
 202:Core/Src/main.c **** 		return 0; // æ— æŒ‰é”®æŒ‰ä¸‹
 203:Core/Src/main.c **** }
 656              		.loc 1 203 1 is_stmt 0 view .LVU160
 657 0086 00E0     		b	.L21
 658              	.L36:
 202:Core/Src/main.c **** }
 659              		.loc 1 202 10 view .LVU161
ARM GAS  C:\Users\11655\AppData\Local\Temp\ccZrn4DB.s 			page 16


 660 0088 0020     		movs	r0, #0
 661              	.L21:
 662              		.loc 1 203 1 view .LVU162
 663 008a 38BD     		pop	{r3, r4, r5, pc}
 664              	.LVL36:
 665              	.L37:
 182:Core/Src/main.c **** 		case 0B0011u:
 666              		.loc 1 182 11 view .LVU163
 667 008c 0220     		movs	r0, #2
 668 008e FCE7     		b	.L21
 669              	.L41:
 670              		.align	2
 671              	.L40:
 672 0090 00080140 		.word	1073809408
 673 0094 00180140 		.word	1073813504
 674 0098 00000000 		.word	.LANCHOR0
 675              		.cfi_endproc
 676              	.LFE70:
 678              		.section	.text.main,"ax",%progbits
 679              		.align	1
 680              		.global	main
 681              		.syntax unified
 682              		.thumb
 683              		.thumb_func
 685              	main:
 686              	.LFB71:
 204:Core/Src/main.c **** 
 205:Core/Src/main.c **** /**
 206:Core/Src/main.c ****  * @brief	PA5è¾“å‡ºpwm
 207:Core/Src/main.c ****  * @param 	none
 208:Core/Src/main.c ****  * @arg		none
 209:Core/Src/main.c ****  * @note  	åˆå§‹åŒ–å‡½æ•°ååˆ©ç”¨HAL_GPIO_WritePinå’ŒHAL_Delayè¿›è¡Œæ§åˆ¶
 210:Core/Src/main.c ****  * @retval	int
 211:Core/Src/main.c ****  */
 212:Core/Src/main.c **** int main(void)
 213:Core/Src/main.c **** {
 687              		.loc 1 213 1 is_stmt 1 view -0
 688              		.cfi_startproc
 689              		@ args = 0, pretend = 0, frame = 0
 690              		@ frame_needed = 0, uses_anonymous_args = 0
 691 0000 38B5     		push	{r3, r4, r5, lr}
 692              	.LCFI14:
 693              		.cfi_def_cfa_offset 16
 694              		.cfi_offset 3, -16
 695              		.cfi_offset 4, -12
 696              		.cfi_offset 5, -8
 697              		.cfi_offset 14, -4
 214:Core/Src/main.c **** 	HAL_Init();						//åˆå§‹åŒ–HALåº“
 698              		.loc 1 214 2 view .LVU165
 699 0002 FFF7FEFF 		bl	HAL_Init
 700              	.LVL37:
 215:Core/Src/main.c **** 	Stm32_Clock_Init(RCC_PLL_MUL9); //è®¾ç½®æ—¶é’Ÿ,72Mï¼Œå› ä¸ºå‡ ä¹éƒ½è¦ç”¨æ—¶é’Ÿï¼Œæœ€å…ˆè€ƒè™‘è®¾
 701              		.loc 1 215 2 view .LVU166
 702 0006 4FF4E010 		mov	r0, #1835008
 703 000a FFF7FEFF 		bl	Stm32_Clock_Init
 704              	.LVL38:
 216:Core/Src/main.c **** 	GPIOA_Init();					//åˆå§‹åŒ–GPIOA
ARM GAS  C:\Users\11655\AppData\Local\Temp\ccZrn4DB.s 			page 17


 705              		.loc 1 216 2 view .LVU167
 706 000e FFF7FEFF 		bl	GPIOA_Init
 707              	.LVL39:
 217:Core/Src/main.c **** 	Beep_Init();					// åˆå§‹åŒ–Beep
 708              		.loc 1 217 2 view .LVU168
 709 0012 FFF7FEFF 		bl	Beep_Init
 710              	.LVL40:
 218:Core/Src/main.c **** 	LED_Init();						// åˆå§‹åŒ–LED
 711              		.loc 1 218 2 view .LVU169
 712 0016 FFF7FEFF 		bl	LED_Init
 713              	.LVL41:
 219:Core/Src/main.c **** 	Key_Init();						// åˆå§‹åŒ–Key
 714              		.loc 1 219 2 view .LVU170
 715 001a FFF7FEFF 		bl	Key_Init
 716              	.LVL42:
 220:Core/Src/main.c **** 	delay_init(72);					//åˆå§‹åŒ–å»¶æ—¶å‡½æ•°
 717              		.loc 1 220 2 view .LVU171
 718 001e 4820     		movs	r0, #72
 719 0020 FFF7FEFF 		bl	delay_init
 720              	.LVL43:
 221:Core/Src/main.c **** 
 222:Core/Src/main.c **** 	u32 nus = 1500;
 721              		.loc 1 222 2 view .LVU172
 722              		.loc 1 222 6 is_stmt 0 view .LVU173
 723 0024 40F2DC54 		movw	r4, #1500
 724 0028 14E0     		b	.L43
 725              	.LVL44:
 726              	.L53:
 223:Core/Src/main.c **** 
 224:Core/Src/main.c **** 	while (1)
 225:Core/Src/main.c **** 	{
 226:Core/Src/main.c **** 		PWM_MG90S(nus, nus, nus);
 227:Core/Src/main.c **** 
 228:Core/Src/main.c **** 		// delay_ms(10);		 // å»¶è¿Ÿ10msæŒ‰é”®æ¶ˆæŠ–ï¼ŒæŒ‰ä¸‹å’Œæ¾å¼€éƒ½è¦
 229:Core/Src/main.c **** 		switch (Key_Scan(1)) // æŒ‰é”®æ‰«ææ¨¡å¼
 230:Core/Src/main.c **** 		{
 231:Core/Src/main.c **** 		case 0:
 232:Core/Src/main.c **** 			HAL_GPIO_WritePin(GPIOB, GPIO_PIN_5, GPIO_PIN_SET);	  // PB5ç½®1ï¼Œç¯ç­
 727              		.loc 1 232 4 is_stmt 1 view .LVU174
 728 002a 424D     		ldr	r5, .L57
 729 002c 0122     		movs	r2, #1
 730 002e 2021     		movs	r1, #32
 731 0030 2846     		mov	r0, r5
 732 0032 FFF7FEFF 		bl	HAL_GPIO_WritePin
 733              	.LVL45:
 233:Core/Src/main.c **** 			HAL_GPIO_WritePin(GPIOE, GPIO_PIN_5, GPIO_PIN_SET);	  // PE5ç½®1ï¼Œç¯ç­
 734              		.loc 1 233 4 view .LVU175
 735 0036 0122     		movs	r2, #1
 736 0038 2021     		movs	r1, #32
 737 003a 3F48     		ldr	r0, .L57+4
 738 003c FFF7FEFF 		bl	HAL_GPIO_WritePin
 739              	.LVL46:
 234:Core/Src/main.c **** 			HAL_GPIO_WritePin(GPIOB, GPIO_PIN_8, GPIO_PIN_RESET); // PB8ç½®0ï¼Œä¸å“
 740              		.loc 1 234 4 view .LVU176
 741 0040 0022     		movs	r2, #0
 742 0042 4FF48071 		mov	r1, #256
 743 0046 2846     		mov	r0, r5
ARM GAS  C:\Users\11655\AppData\Local\Temp\ccZrn4DB.s 			page 18


 744 0048 FFF7FEFF 		bl	HAL_GPIO_WritePin
 745              	.LVL47:
 235:Core/Src/main.c **** 			break;
 746              		.loc 1 235 4 view .LVU177
 747              	.L44:
 236:Core/Src/main.c **** 		case 1:
 237:Core/Src/main.c **** 			HAL_GPIO_WritePin(GPIOB, GPIO_PIN_5, GPIO_PIN_RESET); // PB5ç½®0ï¼Œç¯äº®
 238:Core/Src/main.c **** 			nus += 10;
 239:Core/Src/main.c **** 			// nus = 500;
 240:Core/Src/main.c **** 			break;
 241:Core/Src/main.c **** 		case 2:
 242:Core/Src/main.c **** 			HAL_GPIO_WritePin(GPIOE, GPIO_PIN_5, GPIO_PIN_RESET); // PE5ç½®0ï¼Œç¯äº®
 243:Core/Src/main.c **** 			nus -= 10;
 244:Core/Src/main.c **** 			// nus = 2500;
 245:Core/Src/main.c **** 			break;
 246:Core/Src/main.c **** 		case 3:
 247:Core/Src/main.c **** 			HAL_GPIO_WritePin(GPIOB, GPIO_PIN_5, GPIO_PIN_RESET); // PB5ç½®0ï¼Œç¯äº®
 248:Core/Src/main.c **** 			HAL_GPIO_WritePin(GPIOE, GPIO_PIN_5, GPIO_PIN_RESET); // PE5ç½®0ï¼Œç¯äº®
 249:Core/Src/main.c **** 			break;
 250:Core/Src/main.c **** 		case 4:
 251:Core/Src/main.c **** 			HAL_GPIO_WritePin(GPIOB, GPIO_PIN_8, GPIO_PIN_SET); // PB8ç½®1ï¼Œå“
 252:Core/Src/main.c **** 			nus = 1500;
 253:Core/Src/main.c **** 			break;
 254:Core/Src/main.c **** 		case 5:
 255:Core/Src/main.c **** 			HAL_GPIO_WritePin(GPIOB, GPIO_PIN_5, GPIO_PIN_RESET); // PB5ç½®0ï¼Œç¯äº®
 256:Core/Src/main.c **** 			HAL_GPIO_WritePin(GPIOB, GPIO_PIN_8, GPIO_PIN_SET);	  // PB8ç½®1ï¼Œå“
 257:Core/Src/main.c **** 			break;
 258:Core/Src/main.c **** 		case 6:
 259:Core/Src/main.c **** 			HAL_GPIO_WritePin(GPIOE, GPIO_PIN_5, GPIO_PIN_RESET); // PE5ç½®0ï¼Œç¯äº®
 260:Core/Src/main.c **** 			HAL_GPIO_WritePin(GPIOB, GPIO_PIN_8, GPIO_PIN_SET);	  // PB8ç½®1ï¼Œå“
 261:Core/Src/main.c **** 			break;
 262:Core/Src/main.c **** 		case 7:
 263:Core/Src/main.c **** 			HAL_GPIO_WritePin(GPIOB, GPIO_PIN_5, GPIO_PIN_RESET); // PB5ç½®0ï¼Œç¯äº®
 264:Core/Src/main.c **** 			HAL_GPIO_WritePin(GPIOE, GPIO_PIN_5, GPIO_PIN_RESET); // PE5ç½®0ï¼Œç¯äº®
 265:Core/Src/main.c **** 			HAL_GPIO_WritePin(GPIOB, GPIO_PIN_8, GPIO_PIN_SET);	  // PB8ç½®1ï¼Œå“
 266:Core/Src/main.c **** 			break;
 267:Core/Src/main.c **** 		}
 268:Core/Src/main.c **** 
 269:Core/Src/main.c **** 		if (nus < 500)
 748              		.loc 1 269 3 view .LVU178
 749              		.loc 1 269 6 is_stmt 0 view .LVU179
 750 004c B4F5FA7F 		cmp	r4, #500
 751 0050 3FD2     		bcs	.L54
 270:Core/Src/main.c **** 		{
 271:Core/Src/main.c **** 			nus += 10;
 752              		.loc 1 271 4 is_stmt 1 view .LVU180
 753              		.loc 1 271 8 is_stmt 0 view .LVU181
 754 0052 0A34     		adds	r4, r4, #10
 755              	.LVL48:
 756              	.L43:
 224:Core/Src/main.c **** 	{
 757              		.loc 1 224 2 is_stmt 1 view .LVU182
 226:Core/Src/main.c **** 
 758              		.loc 1 226 3 view .LVU183
 759 0054 2246     		mov	r2, r4
 760 0056 2146     		mov	r1, r4
 761 0058 2046     		mov	r0, r4
ARM GAS  C:\Users\11655\AppData\Local\Temp\ccZrn4DB.s 			page 19


 762 005a FFF7FEFF 		bl	PWM_MG90S
 763              	.LVL49:
 229:Core/Src/main.c **** 		{
 764              		.loc 1 229 3 view .LVU184
 229:Core/Src/main.c **** 		{
 765              		.loc 1 229 11 is_stmt 0 view .LVU185
 766 005e 0120     		movs	r0, #1
 767 0060 FFF7FEFF 		bl	Key_Scan
 768              	.LVL50:
 229:Core/Src/main.c **** 		{
 769              		.loc 1 229 3 view .LVU186
 770 0064 0728     		cmp	r0, #7
 771 0066 F1D8     		bhi	.L44
 772 0068 01A3     		adr	r3, .L46
 773 006a 53F820F0 		ldr	pc, [r3, r0, lsl #2]
 774 006e 00BF     		.p2align 2
 775              	.L46:
 776 0070 2B000000 		.word	.L53+1
 777 0074 91000000 		.word	.L52+1
 778 0078 9F000000 		.word	.L51+1
 779 007c AD000000 		.word	.L50+1
 780 0080 C3000000 		.word	.L49+1
 781 0084 DF000000 		.word	.L48+1
 782 0088 F9000000 		.word	.L47+1
 783 008c 11010000 		.word	.L45+1
 784              		.p2align 1
 785              	.L52:
 237:Core/Src/main.c **** 			nus += 10;
 786              		.loc 1 237 4 is_stmt 1 view .LVU187
 787 0090 0022     		movs	r2, #0
 788 0092 2021     		movs	r1, #32
 789 0094 2748     		ldr	r0, .L57
 790 0096 FFF7FEFF 		bl	HAL_GPIO_WritePin
 791              	.LVL51:
 238:Core/Src/main.c **** 			// nus = 500;
 792              		.loc 1 238 4 view .LVU188
 238:Core/Src/main.c **** 			// nus = 500;
 793              		.loc 1 238 8 is_stmt 0 view .LVU189
 794 009a 0A34     		adds	r4, r4, #10
 795              	.LVL52:
 240:Core/Src/main.c **** 		case 2:
 796              		.loc 1 240 4 is_stmt 1 view .LVU190
 797 009c D6E7     		b	.L44
 798              	.L51:
 242:Core/Src/main.c **** 			nus -= 10;
 799              		.loc 1 242 4 view .LVU191
 800 009e 0022     		movs	r2, #0
 801 00a0 2021     		movs	r1, #32
 802 00a2 2548     		ldr	r0, .L57+4
 803 00a4 FFF7FEFF 		bl	HAL_GPIO_WritePin
 804              	.LVL53:
 243:Core/Src/main.c **** 			// nus = 2500;
 805              		.loc 1 243 4 view .LVU192
 243:Core/Src/main.c **** 			// nus = 2500;
 806              		.loc 1 243 8 is_stmt 0 view .LVU193
 807 00a8 0A3C     		subs	r4, r4, #10
 808              	.LVL54:
ARM GAS  C:\Users\11655\AppData\Local\Temp\ccZrn4DB.s 			page 20


 245:Core/Src/main.c **** 		case 3:
 809              		.loc 1 245 4 is_stmt 1 view .LVU194
 810 00aa CFE7     		b	.L44
 811              	.L50:
 247:Core/Src/main.c **** 			HAL_GPIO_WritePin(GPIOE, GPIO_PIN_5, GPIO_PIN_RESET); // PE5ç½®0ï¼Œç¯äº®
 812              		.loc 1 247 4 view .LVU195
 813 00ac 0022     		movs	r2, #0
 814 00ae 2021     		movs	r1, #32
 815 00b0 2048     		ldr	r0, .L57
 816 00b2 FFF7FEFF 		bl	HAL_GPIO_WritePin
 817              	.LVL55:
 248:Core/Src/main.c **** 			break;
 818              		.loc 1 248 4 view .LVU196
 819 00b6 0022     		movs	r2, #0
 820 00b8 2021     		movs	r1, #32
 821 00ba 1F48     		ldr	r0, .L57+4
 822 00bc FFF7FEFF 		bl	HAL_GPIO_WritePin
 823              	.LVL56:
 249:Core/Src/main.c **** 		case 4:
 824              		.loc 1 249 4 view .LVU197
 825 00c0 C4E7     		b	.L44
 826              	.L49:
 251:Core/Src/main.c **** 			nus = 1500;
 827              		.loc 1 251 4 view .LVU198
 828 00c2 0122     		movs	r2, #1
 829 00c4 4FF48071 		mov	r1, #256
 830 00c8 1A48     		ldr	r0, .L57
 831 00ca FFF7FEFF 		bl	HAL_GPIO_WritePin
 832              	.LVL57:
 252:Core/Src/main.c **** 			break;
 833              		.loc 1 252 4 view .LVU199
 253:Core/Src/main.c **** 		case 5:
 834              		.loc 1 253 4 view .LVU200
 269:Core/Src/main.c **** 		{
 835              		.loc 1 269 3 view .LVU201
 252:Core/Src/main.c **** 			break;
 836              		.loc 1 252 8 is_stmt 0 view .LVU202
 837 00ce 40F2DC54 		movw	r4, #1500
 838              	.LVL58:
 839              	.L54:
 272:Core/Src/main.c **** 		}
 273:Core/Src/main.c **** 		else if (nus > 2500)
 840              		.loc 1 273 8 is_stmt 1 view .LVU203
 841              		.loc 1 273 11 is_stmt 0 view .LVU204
 842 00d2 40F6C413 		movw	r3, #2500
 843 00d6 9C42     		cmp	r4, r3
 844 00d8 BCD9     		bls	.L43
 274:Core/Src/main.c **** 		{
 275:Core/Src/main.c **** 			nus -= 10;
 845              		.loc 1 275 4 is_stmt 1 view .LVU205
 846              		.loc 1 275 8 is_stmt 0 view .LVU206
 847 00da 0A3C     		subs	r4, r4, #10
 848              	.LVL59:
 849              		.loc 1 275 8 view .LVU207
 850 00dc BAE7     		b	.L43
 851              	.L48:
 255:Core/Src/main.c **** 			HAL_GPIO_WritePin(GPIOB, GPIO_PIN_8, GPIO_PIN_SET);	  // PB8ç½®1ï¼Œå“
ARM GAS  C:\Users\11655\AppData\Local\Temp\ccZrn4DB.s 			page 21


 852              		.loc 1 255 4 is_stmt 1 view .LVU208
 853 00de 154D     		ldr	r5, .L57
 854 00e0 0022     		movs	r2, #0
 855 00e2 2021     		movs	r1, #32
 856 00e4 2846     		mov	r0, r5
 857 00e6 FFF7FEFF 		bl	HAL_GPIO_WritePin
 858              	.LVL60:
 256:Core/Src/main.c **** 			break;
 859              		.loc 1 256 4 view .LVU209
 860 00ea 0122     		movs	r2, #1
 861 00ec 4FF48071 		mov	r1, #256
 862 00f0 2846     		mov	r0, r5
 863 00f2 FFF7FEFF 		bl	HAL_GPIO_WritePin
 864              	.LVL61:
 257:Core/Src/main.c **** 		case 6:
 865              		.loc 1 257 4 view .LVU210
 866 00f6 A9E7     		b	.L44
 867              	.L47:
 259:Core/Src/main.c **** 			HAL_GPIO_WritePin(GPIOB, GPIO_PIN_8, GPIO_PIN_SET);	  // PB8ç½®1ï¼Œå“
 868              		.loc 1 259 4 view .LVU211
 869 00f8 0022     		movs	r2, #0
 870 00fa 2021     		movs	r1, #32
 871 00fc 0E48     		ldr	r0, .L57+4
 872 00fe FFF7FEFF 		bl	HAL_GPIO_WritePin
 873              	.LVL62:
 260:Core/Src/main.c **** 			break;
 874              		.loc 1 260 4 view .LVU212
 875 0102 0122     		movs	r2, #1
 876 0104 4FF48071 		mov	r1, #256
 877 0108 0A48     		ldr	r0, .L57
 878 010a FFF7FEFF 		bl	HAL_GPIO_WritePin
 879              	.LVL63:
 261:Core/Src/main.c **** 		case 7:
 880              		.loc 1 261 4 view .LVU213
 881 010e 9DE7     		b	.L44
 882              	.L45:
 263:Core/Src/main.c **** 			HAL_GPIO_WritePin(GPIOE, GPIO_PIN_5, GPIO_PIN_RESET); // PE5ç½®0ï¼Œç¯äº®
 883              		.loc 1 263 4 view .LVU214
 884 0110 084D     		ldr	r5, .L57
 885 0112 0022     		movs	r2, #0
 886 0114 2021     		movs	r1, #32
 887 0116 2846     		mov	r0, r5
 888 0118 FFF7FEFF 		bl	HAL_GPIO_WritePin
 889              	.LVL64:
 264:Core/Src/main.c **** 			HAL_GPIO_WritePin(GPIOB, GPIO_PIN_8, GPIO_PIN_SET);	  // PB8ç½®1ï¼Œå“
 890              		.loc 1 264 4 view .LVU215
 891 011c 0022     		movs	r2, #0
 892 011e 2021     		movs	r1, #32
 893 0120 0548     		ldr	r0, .L57+4
 894 0122 FFF7FEFF 		bl	HAL_GPIO_WritePin
 895              	.LVL65:
 265:Core/Src/main.c **** 			break;
 896              		.loc 1 265 4 view .LVU216
 897 0126 0122     		movs	r2, #1
 898 0128 4FF48071 		mov	r1, #256
 899 012c 2846     		mov	r0, r5
 900 012e FFF7FEFF 		bl	HAL_GPIO_WritePin
ARM GAS  C:\Users\11655\AppData\Local\Temp\ccZrn4DB.s 			page 22


 901              	.LVL66:
 266:Core/Src/main.c **** 		}
 902              		.loc 1 266 4 view .LVU217
 903 0132 8BE7     		b	.L44
 904              	.L58:
 905              		.align	2
 906              	.L57:
 907 0134 000C0140 		.word	1073810432
 908 0138 00180140 		.word	1073813504
 909              		.cfi_endproc
 910              	.LFE71:
 912              		.section	.data.Key_up.0,"aw"
 913              		.set	.LANCHOR0,. + 0
 916              	Key_up.0:
 917 0000 01       		.byte	1
 918              		.text
 919              	.Letext0:
 920              		.file 2 "c:\\program files (x86)\\gnu arm embedded toolchain\\10 2021.10\\arm-none-eabi\\include\\
 921              		.file 3 "c:\\program files (x86)\\gnu arm embedded toolchain\\10 2021.10\\arm-none-eabi\\include\\
 922              		.file 4 "Drivers/CMSIS/Device/ST/STM32F1xx/Include/stm32f103xe.h"
 923              		.file 5 "Drivers/STM32F1xx_HAL_Driver/Inc/stm32f1xx_hal_gpio.h"
 924              		.file 6 "User/Inc/sys.h"
 925              		.file 7 "Drivers/STM32F1xx_HAL_Driver/Inc/stm32f1xx_hal.h"
 926              		.file 8 "User/Inc/delay.h"
ARM GAS  C:\Users\11655\AppData\Local\Temp\ccZrn4DB.s 			page 23

