ARM GAS  C:\Users\11655\AppData\Local\Temp\cchTHsli.s 			page 1


   1              		.cpu cortex-m3
   2              		.arch armv7-m
   3              		.fpu softvfp
   4              		.eabi_attribute 20, 1
   5              		.eabi_attribute 21, 1
   6              		.eabi_attribute 23, 3
   7              		.eabi_attribute 24, 1
   8              		.eabi_attribute 25, 1
   9              		.eabi_attribute 26, 1
  10              		.eabi_attribute 30, 1
  11              		.eabi_attribute 34, 1
  12              		.eabi_attribute 18, 4
  13              		.file	"sys.c"
  14              		.text
  15              	.Ltext0:
  16              		.cfi_sections	.debug_frame
  17              		.section	.text.Stm32_Clock_Init,"ax",%progbits
  18              		.align	1
  19              		.global	Stm32_Clock_Init
  20              		.syntax unified
  21              		.thumb
  22              		.thumb_func
  24              	Stm32_Clock_Init:
  25              	.LVL0:
  26              	.LFB65:
  27              		.file 1 "User/Src/sys.c"
   1:User/Src/sys.c **** #include "sys.h"
   2:User/Src/sys.c **** 
   3:User/Src/sys.c **** //////////////////////////////////////////////////////////////////////////////////	 
   4:User/Src/sys.c **** //本程序只供学习使用，未经作者许可，不得用于其它任何用途
   5:User/Src/sys.c **** //ALIENTEK Mini STM32开发板
   6:User/Src/sys.c **** //系统中断分组设置化		   
   7:User/Src/sys.c **** //正点原子@ALIENTEK
   8:User/Src/sys.c **** //技术论坛:www.openedv.com
   9:User/Src/sys.c **** //修改日期:2019/9/17
  10:User/Src/sys.c **** //版本：V1.4
  11:User/Src/sys.c **** //版权所有，盗版必究。
  12:User/Src/sys.c **** //Copyright(C) 正点原子 2009-2019
  13:User/Src/sys.c **** //All rights reserved
  14:User/Src/sys.c **** //********************************************************************************  
  15:User/Src/sys.c **** 
  16:User/Src/sys.c **** //时钟系统配置函数
  17:User/Src/sys.c **** //PLL:选择的倍频数，RCC_PLL_MUL2~RCC_PLL_MUL16
  18:User/Src/sys.c **** //返回值:0,成功;1,失败
  19:User/Src/sys.c **** void Stm32_Clock_Init(u32 PLL)
  20:User/Src/sys.c **** {
  28              		.loc 1 20 1 view -0
  29              		.cfi_startproc
  30              		@ args = 0, pretend = 0, frame = 64
  31              		@ frame_needed = 0, uses_anonymous_args = 0
  32              		.loc 1 20 1 is_stmt 0 view .LVU1
  33 0000 00B5     		push	{lr}
  34              	.LCFI0:
  35              		.cfi_def_cfa_offset 4
  36              		.cfi_offset 14, -4
  37 0002 91B0     		sub	sp, sp, #68
  38              	.LCFI1:
ARM GAS  C:\Users\11655\AppData\Local\Temp\cchTHsli.s 			page 2


  39              		.cfi_def_cfa_offset 72
  21:User/Src/sys.c ****     HAL_StatusTypeDef ret = HAL_OK;
  40              		.loc 1 21 5 is_stmt 1 view .LVU2
  41              	.LVL1:
  22:User/Src/sys.c ****     RCC_OscInitTypeDef RCC_OscInitStructure; 
  42              		.loc 1 22 5 view .LVU3
  23:User/Src/sys.c ****     RCC_ClkInitTypeDef RCC_ClkInitStructure;
  43              		.loc 1 23 5 view .LVU4
  24:User/Src/sys.c ****     
  25:User/Src/sys.c ****     RCC_OscInitStructure.OscillatorType=RCC_OSCILLATORTYPE_HSE;    	//时钟源为HSE
  44              		.loc 1 25 5 view .LVU5
  45              		.loc 1 25 40 is_stmt 0 view .LVU6
  46 0004 0123     		movs	r3, #1
  47 0006 0693     		str	r3, [sp, #24]
  26:User/Src/sys.c ****     RCC_OscInitStructure.HSEState=RCC_HSE_ON;                      	//打开HSE
  48              		.loc 1 26 5 is_stmt 1 view .LVU7
  49              		.loc 1 26 34 is_stmt 0 view .LVU8
  50 0008 4FF48033 		mov	r3, #65536
  51 000c 0793     		str	r3, [sp, #28]
  27:User/Src/sys.c **** 	RCC_OscInitStructure.HSEPredivValue=RCC_HSE_PREDIV_DIV1;		//HSE预分频
  52              		.loc 1 27 2 is_stmt 1 view .LVU9
  53              		.loc 1 27 37 is_stmt 0 view .LVU10
  54 000e 0022     		movs	r2, #0
  55 0010 0892     		str	r2, [sp, #32]
  28:User/Src/sys.c ****     RCC_OscInitStructure.PLL.PLLState=RCC_PLL_ON;					//打开PLL
  56              		.loc 1 28 5 is_stmt 1 view .LVU11
  57              		.loc 1 28 38 is_stmt 0 view .LVU12
  58 0012 0222     		movs	r2, #2
  59 0014 0D92     		str	r2, [sp, #52]
  29:User/Src/sys.c ****     RCC_OscInitStructure.PLL.PLLSource=RCC_PLLSOURCE_HSE;			//PLL时钟源选择HSE
  60              		.loc 1 29 5 is_stmt 1 view .LVU13
  61              		.loc 1 29 39 is_stmt 0 view .LVU14
  62 0016 0E93     		str	r3, [sp, #56]
  30:User/Src/sys.c ****     RCC_OscInitStructure.PLL.PLLMUL=PLL; 							//主PLL倍频因子
  63              		.loc 1 30 5 is_stmt 1 view .LVU15
  64              		.loc 1 30 36 is_stmt 0 view .LVU16
  65 0018 0F90     		str	r0, [sp, #60]
  31:User/Src/sys.c ****     ret=HAL_RCC_OscConfig(&RCC_OscInitStructure);//初始化
  66              		.loc 1 31 5 is_stmt 1 view .LVU17
  67              		.loc 1 31 9 is_stmt 0 view .LVU18
  68 001a 06A8     		add	r0, sp, #24
  69              	.LVL2:
  70              		.loc 1 31 9 view .LVU19
  71 001c FFF7FEFF 		bl	HAL_RCC_OscConfig
  72              	.LVL3:
  32:User/Src/sys.c **** 	
  33:User/Src/sys.c ****     if(ret!=HAL_OK) while(1);
  73              		.loc 1 33 5 is_stmt 1 view .LVU20
  74              		.loc 1 33 7 is_stmt 0 view .LVU21
  75 0020 00B1     		cbz	r0, .L2
  76              	.L3:
  77              		.loc 1 33 21 is_stmt 1 discriminator 1 view .LVU22
  78              		.loc 1 33 29 discriminator 1 view .LVU23
  79              		.loc 1 33 26 discriminator 1 view .LVU24
  80 0022 FEE7     		b	.L3
  81              	.L2:
  34:User/Src/sys.c ****     
ARM GAS  C:\Users\11655\AppData\Local\Temp\cchTHsli.s 			page 3


  35:User/Src/sys.c ****     //选中PLL作为系统时钟源并且配置HCLK,PCLK1和PCLK2
  36:User/Src/sys.c ****     RCC_ClkInitStructure.ClockType=(RCC_CLOCKTYPE_SYSCLK|RCC_CLOCKTYPE_HCLK|RCC_CLOCKTYPE_PCLK1|RCC
  82              		.loc 1 36 5 view .LVU25
  83              		.loc 1 36 35 is_stmt 0 view .LVU26
  84 0024 0F23     		movs	r3, #15
  85 0026 0193     		str	r3, [sp, #4]
  37:User/Src/sys.c ****     RCC_ClkInitStructure.SYSCLKSource=RCC_SYSCLKSOURCE_PLLCLK;		//设置系统时钟时钟源为PLL
  86              		.loc 1 37 5 is_stmt 1 view .LVU27
  87              		.loc 1 37 38 is_stmt 0 view .LVU28
  88 0028 0221     		movs	r1, #2
  89 002a 0291     		str	r1, [sp, #8]
  38:User/Src/sys.c ****     RCC_ClkInitStructure.AHBCLKDivider=RCC_SYSCLK_DIV1;				//AHB分频系数为1
  90              		.loc 1 38 5 is_stmt 1 view .LVU29
  91              		.loc 1 38 39 is_stmt 0 view .LVU30
  92 002c 0023     		movs	r3, #0
  93 002e 0393     		str	r3, [sp, #12]
  39:User/Src/sys.c ****     RCC_ClkInitStructure.APB1CLKDivider=RCC_HCLK_DIV2; 				//APB1分频系数为2
  94              		.loc 1 39 5 is_stmt 1 view .LVU31
  95              		.loc 1 39 40 is_stmt 0 view .LVU32
  96 0030 4FF48062 		mov	r2, #1024
  97 0034 0492     		str	r2, [sp, #16]
  40:User/Src/sys.c ****     RCC_ClkInitStructure.APB2CLKDivider=RCC_HCLK_DIV1; 				//APB2分频系数为1
  98              		.loc 1 40 5 is_stmt 1 view .LVU33
  99              		.loc 1 40 40 is_stmt 0 view .LVU34
 100 0036 0593     		str	r3, [sp, #20]
  41:User/Src/sys.c ****     ret=HAL_RCC_ClockConfig(&RCC_ClkInitStructure,FLASH_LATENCY_2);	//同时设置FLASH延时周期
 101              		.loc 1 41 5 is_stmt 1 view .LVU35
 102              		.loc 1 41 9 is_stmt 0 view .LVU36
 103 0038 01A8     		add	r0, sp, #4
 104              	.LVL4:
 105              		.loc 1 41 9 view .LVU37
 106 003a FFF7FEFF 		bl	HAL_RCC_ClockConfig
 107              	.LVL5:
  42:User/Src/sys.c **** 		
  43:User/Src/sys.c ****     if(ret!=HAL_OK) while(1);
 108              		.loc 1 43 5 is_stmt 1 view .LVU38
 109              		.loc 1 43 7 is_stmt 0 view .LVU39
 110 003e 00B1     		cbz	r0, .L1
 111              	.L5:
 112              		.loc 1 43 21 is_stmt 1 discriminator 2 view .LVU40
 113              		.loc 1 43 29 discriminator 2 view .LVU41
 114              		.loc 1 43 26 discriminator 2 view .LVU42
 115 0040 FEE7     		b	.L5
 116              	.L1:
  44:User/Src/sys.c **** }
 117              		.loc 1 44 1 is_stmt 0 view .LVU43
 118 0042 11B0     		add	sp, sp, #68
 119              	.LCFI2:
 120              		.cfi_def_cfa_offset 4
 121              		@ sp needed
 122 0044 5DF804FB 		ldr	pc, [sp], #4
 123              		.cfi_endproc
 124              	.LFE65:
 126              		.section	.text.WFI_SET,"ax",%progbits
 127              		.align	1
 128              		.global	WFI_SET
 129              		.syntax unified
ARM GAS  C:\Users\11655\AppData\Local\Temp\cchTHsli.s 			page 4


 130              		.thumb
 131              		.thumb_func
 133              	WFI_SET:
 134              	.LFB66:
  45:User/Src/sys.c **** 
  46:User/Src/sys.c **** #ifdef  USE_FULL_ASSERT
  47:User/Src/sys.c **** //当编译提示出错的时候此函数用来报告错误的文件和所在行
  48:User/Src/sys.c **** //file：指向源文件
  49:User/Src/sys.c **** //line：指向在文件中的行数
  50:User/Src/sys.c **** void assert_failed(uint8_t* file, uint32_t line)
  51:User/Src/sys.c **** { 
  52:User/Src/sys.c **** 	while (1)
  53:User/Src/sys.c **** 	{
  54:User/Src/sys.c **** 	}
  55:User/Src/sys.c **** }
  56:User/Src/sys.c **** #endif
  57:User/Src/sys.c **** //THUMB指令不支持汇编内联
  58:User/Src/sys.c **** //采用如下方法实现执行汇编指令WFI  
  59:User/Src/sys.c **** void WFI_SET(void)
  60:User/Src/sys.c **** {
 135              		.loc 1 60 1 is_stmt 1 view -0
 136              		.cfi_startproc
 137              		@ args = 0, pretend = 0, frame = 0
 138              		@ frame_needed = 0, uses_anonymous_args = 0
 139              		@ link register save eliminated.
  61:User/Src/sys.c **** 	__ASM volatile("wfi");		  
 140              		.loc 1 61 2 view .LVU45
 141              		.syntax unified
 142              	@ 61 "User/Src/sys.c" 1
 143 0000 30BF     		wfi
 144              	@ 0 "" 2
  62:User/Src/sys.c **** }
 145              		.loc 1 62 1 is_stmt 0 view .LVU46
 146              		.thumb
 147              		.syntax unified
 148 0002 7047     		bx	lr
 149              		.cfi_endproc
 150              	.LFE66:
 152              		.section	.text.INTX_DISABLE,"ax",%progbits
 153              		.align	1
 154              		.global	INTX_DISABLE
 155              		.syntax unified
 156              		.thumb
 157              		.thumb_func
 159              	INTX_DISABLE:
 160              	.LFB67:
  63:User/Src/sys.c **** //关闭所有中断
  64:User/Src/sys.c **** void INTX_DISABLE(void)
  65:User/Src/sys.c **** {		  
 161              		.loc 1 65 1 is_stmt 1 view -0
 162              		.cfi_startproc
 163              		@ args = 0, pretend = 0, frame = 0
 164              		@ frame_needed = 0, uses_anonymous_args = 0
 165              		@ link register save eliminated.
  66:User/Src/sys.c **** 	__ASM volatile("cpsid i");
 166              		.loc 1 66 2 view .LVU48
 167              		.syntax unified
ARM GAS  C:\Users\11655\AppData\Local\Temp\cchTHsli.s 			page 5


 168              	@ 66 "User/Src/sys.c" 1
 169 0000 72B6     		cpsid i
 170              	@ 0 "" 2
  67:User/Src/sys.c **** }
 171              		.loc 1 67 1 is_stmt 0 view .LVU49
 172              		.thumb
 173              		.syntax unified
 174 0002 7047     		bx	lr
 175              		.cfi_endproc
 176              	.LFE67:
 178              		.section	.text.INTX_ENABLE,"ax",%progbits
 179              		.align	1
 180              		.global	INTX_ENABLE
 181              		.syntax unified
 182              		.thumb
 183              		.thumb_func
 185              	INTX_ENABLE:
 186              	.LFB68:
  68:User/Src/sys.c **** //开启所有中断
  69:User/Src/sys.c **** void INTX_ENABLE(void)
  70:User/Src/sys.c **** {
 187              		.loc 1 70 1 is_stmt 1 view -0
 188              		.cfi_startproc
 189              		@ args = 0, pretend = 0, frame = 0
 190              		@ frame_needed = 0, uses_anonymous_args = 0
 191              		@ link register save eliminated.
  71:User/Src/sys.c **** 	__ASM volatile("cpsie i");		  
 192              		.loc 1 71 2 view .LVU51
 193              		.syntax unified
 194              	@ 71 "User/Src/sys.c" 1
 195 0000 62B6     		cpsie i
 196              	@ 0 "" 2
  72:User/Src/sys.c **** }
 197              		.loc 1 72 1 is_stmt 0 view .LVU52
 198              		.thumb
 199              		.syntax unified
 200 0002 7047     		bx	lr
 201              		.cfi_endproc
 202              	.LFE68:
 204              		.section	.text.MSR_MSP,"ax",%progbits
 205              		.align	1
 206              		.global	MSR_MSP
 207              		.syntax unified
 208              		.thumb
 209              		.thumb_func
 211              	MSR_MSP:
 212              	.LVL6:
 213              	.LFB69:
  73:User/Src/sys.c **** //设置栈顶地址
  74:User/Src/sys.c **** //addr:栈顶地址
  75:User/Src/sys.c **** void MSR_MSP(u32 addr) // 下面两个也是一样的功能
  76:User/Src/sys.c **** {
 214              		.loc 1 76 1 is_stmt 1 view -0
 215              		.cfi_startproc
 216              		@ args = 0, pretend = 0, frame = 0
 217              		@ frame_needed = 0, uses_anonymous_args = 0
 218              		@ link register save eliminated.
ARM GAS  C:\Users\11655\AppData\Local\Temp\cchTHsli.s 			page 6


  77:User/Src/sys.c **** __ASM volatile("MSR MSP, r0");
 219              		.loc 1 77 1 view .LVU54
 220              		.syntax unified
 221              	@ 77 "User/Src/sys.c" 1
 222 0000 80F30888 		MSR MSP, r0
 223              	@ 0 "" 2
  78:User/Src/sys.c **** __ASM volatile("BX r14");
 224              		.loc 1 78 1 view .LVU55
 225              	@ 78 "User/Src/sys.c" 1
 226 0004 7047     		BX r14
 227              	@ 0 "" 2
  79:User/Src/sys.c **** }
 228              		.loc 1 79 1 is_stmt 0 view .LVU56
 229              		.thumb
 230              		.syntax unified
 231 0006 7047     		bx	lr
 232              		.cfi_endproc
 233              	.LFE69:
 235              		.text
 236              	.Letext0:
 237              		.file 2 "c:\\program files (x86)\\gnu arm embedded toolchain\\10 2021.10\\arm-none-eabi\\include\\
 238              		.file 3 "c:\\program files (x86)\\gnu arm embedded toolchain\\10 2021.10\\arm-none-eabi\\include\\
 239              		.file 4 "Drivers/STM32F1xx_HAL_Driver/Inc/stm32f1xx_hal_def.h"
 240              		.file 5 "Drivers/STM32F1xx_HAL_Driver/Inc/stm32f1xx_hal_rcc.h"
 241              		.file 6 "Drivers/STM32F1xx_HAL_Driver/Inc/stm32f1xx_hal_rcc_ex.h"
 242              		.file 7 "User/Inc/sys.h"
ARM GAS  C:\Users\11655\AppData\Local\Temp\cchTHsli.s 			page 7

