ARM GAS  C:\Users\11655\AppData\Local\Temp\cc3CYiFH.s 			page 1


   1              		.cpu cortex-m4
   2              		.arch armv7e-m
   3              		.fpu fpv4-sp-d16
   4              		.eabi_attribute 27, 1
   5              		.eabi_attribute 28, 1
   6              		.eabi_attribute 20, 1
   7              		.eabi_attribute 21, 1
   8              		.eabi_attribute 23, 3
   9              		.eabi_attribute 24, 1
  10              		.eabi_attribute 25, 1
  11              		.eabi_attribute 26, 1
  12              		.eabi_attribute 30, 1
  13              		.eabi_attribute 34, 1
  14              		.eabi_attribute 18, 4
  15              		.file	"key.c"
  16              		.text
  17              	.Ltext0:
  18              		.cfi_sections	.debug_frame
  19              		.section	.text.KEY_Init,"ax",%progbits
  20              		.align	1
  21              		.global	KEY_Init
  22              		.syntax unified
  23              		.thumb
  24              		.thumb_func
  26              	KEY_Init:
  27              	.LFB130:
  28              		.file 1 "Hardware/Src/key.c"
   1:Hardware/Src/key.c **** #include "key.h"
   2:Hardware/Src/key.c **** #include "delay.h"
   3:Hardware/Src/key.c **** //////////////////////////////////////////////////////////////////////////////////
   4:Hardware/Src/key.c **** //本程序只供学习使用，未经作者许可，不得用于其它任何用途
   5:Hardware/Src/key.c **** // ALIENTEK STM32F407开发板
   6:Hardware/Src/key.c **** // KEY驱动代码
   7:Hardware/Src/key.c **** //正点原子@ALIENTEK
   8:Hardware/Src/key.c **** //技术论坛:www.openedv.com
   9:Hardware/Src/key.c **** //创建日期:2017/4/6
  10:Hardware/Src/key.c **** //版本：V1.0
  11:Hardware/Src/key.c **** //版权所有，盗版必究。
  12:Hardware/Src/key.c **** // Copyright(C) 广州市星翼电子科技有限公司 2014-2024
  13:Hardware/Src/key.c **** // All rights reserved
  14:Hardware/Src/key.c **** //////////////////////////////////////////////////////////////////////////////////
  15:Hardware/Src/key.c **** 
  16:Hardware/Src/key.c **** //按键初始化函数
  17:Hardware/Src/key.c **** void KEY_Init(void)
  18:Hardware/Src/key.c **** {
  29              		.loc 1 18 1 view -0
  30              		.cfi_startproc
  31              		@ args = 0, pretend = 0, frame = 24
  32              		@ frame_needed = 0, uses_anonymous_args = 0
  33 0000 00B5     		push	{lr}
  34              	.LCFI0:
  35              		.cfi_def_cfa_offset 4
  36              		.cfi_offset 14, -4
  37 0002 87B0     		sub	sp, sp, #28
  38              	.LCFI1:
  39              		.cfi_def_cfa_offset 32
  19:Hardware/Src/key.c ****     GPIO_InitTypeDef GPIO_Initure;
ARM GAS  C:\Users\11655\AppData\Local\Temp\cc3CYiFH.s 			page 2


  40              		.loc 1 19 5 view .LVU1
  20:Hardware/Src/key.c **** 
  21:Hardware/Src/key.c ****     __HAL_RCC_GPIOA_CLK_ENABLE(); //开启GPIOA时钟
  41              		.loc 1 21 5 view .LVU2
  42              	.LBB2:
  43              		.loc 1 21 5 view .LVU3
  44 0004 0021     		movs	r1, #0
  45 0006 0091     		str	r1, [sp]
  46              		.loc 1 21 5 view .LVU4
  47 0008 0B4B     		ldr	r3, .L3
  48 000a 1A6B     		ldr	r2, [r3, #48]
  49 000c 42F00102 		orr	r2, r2, #1
  50 0010 1A63     		str	r2, [r3, #48]
  51              		.loc 1 21 5 view .LVU5
  52 0012 1B6B     		ldr	r3, [r3, #48]
  53 0014 03F00103 		and	r3, r3, #1
  54 0018 0093     		str	r3, [sp]
  55              		.loc 1 21 5 view .LVU6
  56 001a 009B     		ldr	r3, [sp]
  57              	.LBE2:
  58              		.loc 1 21 5 view .LVU7
  22:Hardware/Src/key.c ****     // __HAL_RCC_GPIOE_CLK_ENABLE();           //开启GPIOE时钟
  23:Hardware/Src/key.c **** 
  24:Hardware/Src/key.c ****     GPIO_Initure.Pin = GPIO_PIN_0;        // PA0
  59              		.loc 1 24 5 view .LVU8
  60              		.loc 1 24 22 is_stmt 0 view .LVU9
  61 001c 0123     		movs	r3, #1
  62 001e 0193     		str	r3, [sp, #4]
  25:Hardware/Src/key.c ****     GPIO_Initure.Mode = GPIO_MODE_INPUT;  //输入
  63              		.loc 1 25 5 is_stmt 1 view .LVU10
  64              		.loc 1 25 23 is_stmt 0 view .LVU11
  65 0020 0291     		str	r1, [sp, #8]
  26:Hardware/Src/key.c ****     GPIO_Initure.Pull = GPIO_PULLUP;    //上拉
  66              		.loc 1 26 5 is_stmt 1 view .LVU12
  67              		.loc 1 26 23 is_stmt 0 view .LVU13
  68 0022 0393     		str	r3, [sp, #12]
  27:Hardware/Src/key.c ****     GPIO_Initure.Speed = GPIO_SPEED_HIGH; //高速
  69              		.loc 1 27 5 is_stmt 1 view .LVU14
  70              		.loc 1 27 24 is_stmt 0 view .LVU15
  71 0024 0323     		movs	r3, #3
  72 0026 0493     		str	r3, [sp, #16]
  28:Hardware/Src/key.c ****     HAL_GPIO_Init(GPIOA, &GPIO_Initure);
  73              		.loc 1 28 5 is_stmt 1 view .LVU16
  74 0028 01A9     		add	r1, sp, #4
  75 002a 0448     		ldr	r0, .L3+4
  76 002c FFF7FEFF 		bl	HAL_GPIO_Init
  77              	.LVL0:
  29:Hardware/Src/key.c **** 
  30:Hardware/Src/key.c ****     // GPIO_Initure.Pin=GPIO_PIN_2|GPIO_PIN_3|GPIO_PIN_4; //PE2,3,4
  31:Hardware/Src/key.c ****     // GPIO_Initure.Mode=GPIO_MODE_INPUT;      //输入
  32:Hardware/Src/key.c ****     // GPIO_Initure.Pull=GPIO_PULLUP;          //上拉
  33:Hardware/Src/key.c ****     // GPIO_Initure.Speed=GPIO_SPEED_HIGH;     //高速
  34:Hardware/Src/key.c ****     // HAL_GPIO_Init(GPIOE,&GPIO_Initure);
  35:Hardware/Src/key.c **** }
  78              		.loc 1 35 1 is_stmt 0 view .LVU17
  79 0030 07B0     		add	sp, sp, #28
  80              	.LCFI2:
ARM GAS  C:\Users\11655\AppData\Local\Temp\cc3CYiFH.s 			page 3


  81              		.cfi_def_cfa_offset 4
  82              		@ sp needed
  83 0032 5DF804FB 		ldr	pc, [sp], #4
  84              	.L4:
  85 0036 00BF     		.align	2
  86              	.L3:
  87 0038 00380240 		.word	1073887232
  88 003c 00000240 		.word	1073872896
  89              		.cfi_endproc
  90              	.LFE130:
  92              		.section	.text.KEY_Scan,"ax",%progbits
  93              		.align	1
  94              		.global	KEY_Scan
  95              		.syntax unified
  96              		.thumb
  97              		.thumb_func
  99              	KEY_Scan:
 100              	.LVL1:
 101              	.LFB131:
  36:Hardware/Src/key.c **** 
  37:Hardware/Src/key.c **** //按键处理函数
  38:Hardware/Src/key.c **** //返回按键值
  39:Hardware/Src/key.c **** // mode:0,不支持连续按;1,支持连续按;
  40:Hardware/Src/key.c **** // 0，没有任何按键按下
  41:Hardware/Src/key.c **** // 1，WKUP按下 WK_UP
  42:Hardware/Src/key.c **** //注意此函数有响应优先级,KEY0>KEY1>KEY2>WK_UP!!
  43:Hardware/Src/key.c **** u8 KEY_Scan(u8 mode)
  44:Hardware/Src/key.c **** {
 102              		.loc 1 44 1 is_stmt 1 view -0
 103              		.cfi_startproc
 104              		@ args = 0, pretend = 0, frame = 0
 105              		@ frame_needed = 0, uses_anonymous_args = 0
 106              		.loc 1 44 1 is_stmt 0 view .LVU19
 107 0000 10B5     		push	{r4, lr}
 108              	.LCFI3:
 109              		.cfi_def_cfa_offset 8
 110              		.cfi_offset 4, -8
 111              		.cfi_offset 14, -4
  45:Hardware/Src/key.c ****     static u8 key_up = 1; //按键松开标志
 112              		.loc 1 45 5 is_stmt 1 view .LVU20
  46:Hardware/Src/key.c ****     if (mode == 1)
 113              		.loc 1 46 5 view .LVU21
 114              		.loc 1 46 8 is_stmt 0 view .LVU22
 115 0002 0128     		cmp	r0, #1
 116 0004 11D0     		beq	.L12
 117              	.L6:
  47:Hardware/Src/key.c ****         key_up = 1; //支持连按
  48:Hardware/Src/key.c ****     // if (key_up && (KEY0 == 0 || KEY1 == 0 || KEY2 == 0 || WK_UP == 1))
  49:Hardware/Src/key.c ****     // {
  50:Hardware/Src/key.c ****     //     delay_ms(10);
  51:Hardware/Src/key.c ****     //     key_up = 0;
  52:Hardware/Src/key.c ****     //     if (KEY0 == 0)
  53:Hardware/Src/key.c ****     //         return KEY0_PRES;
  54:Hardware/Src/key.c ****     //     else if (KEY1 == 0)
  55:Hardware/Src/key.c ****     //         return KEY1_PRES;
  56:Hardware/Src/key.c ****     //     else if (KEY2 == 0)
  57:Hardware/Src/key.c ****     //         return KEY2_PRES;
ARM GAS  C:\Users\11655\AppData\Local\Temp\cc3CYiFH.s 			page 4


  58:Hardware/Src/key.c ****     //     else if (WK_UP == 1)
  59:Hardware/Src/key.c ****     //         return WKUP_PRES;
  60:Hardware/Src/key.c ****     // }
  61:Hardware/Src/key.c ****     // else if (KEY0 == 1 && KEY1 == 1 && KEY2 == 1 && WK_UP == 0)
  62:Hardware/Src/key.c ****     //     key_up = 1;
  63:Hardware/Src/key.c ****     if (key_up && WK_UP == 0)
 118              		.loc 1 63 5 is_stmt 1 view .LVU23
 119              		.loc 1 63 9 is_stmt 0 view .LVU24
 120 0006 144B     		ldr	r3, .L15
 121 0008 1B78     		ldrb	r3, [r3]	@ zero_extendqisi2
 122              		.loc 1 63 8 view .LVU25
 123 000a 2BB1     		cbz	r3, .L7
 124              		.loc 1 63 19 discriminator 1 view .LVU26
 125 000c 0121     		movs	r1, #1
 126 000e 1348     		ldr	r0, .L15+4
 127              	.LVL2:
 128              		.loc 1 63 19 discriminator 1 view .LVU27
 129 0010 FFF7FEFF 		bl	HAL_GPIO_ReadPin
 130              	.LVL3:
 131              		.loc 1 63 16 discriminator 1 view .LVU28
 132 0014 0446     		mov	r4, r0
 133 0016 60B1     		cbz	r0, .L13
 134              	.L7:
  64:Hardware/Src/key.c ****     {
  65:Hardware/Src/key.c ****         delay_ms(10);
  66:Hardware/Src/key.c ****         key_up = 0;
  67:Hardware/Src/key.c ****         if (WK_UP == 0)
  68:Hardware/Src/key.c ****         {
  69:Hardware/Src/key.c ****             return 1;
  70:Hardware/Src/key.c ****         }
  71:Hardware/Src/key.c ****     }
  72:Hardware/Src/key.c ****     else if (WK_UP == 1)
 135              		.loc 1 72 10 is_stmt 1 view .LVU29
 136              		.loc 1 72 14 is_stmt 0 view .LVU30
 137 0018 0121     		movs	r1, #1
 138 001a 1048     		ldr	r0, .L15+4
 139 001c FFF7FEFF 		bl	HAL_GPIO_ReadPin
 140              	.LVL4:
 141              		.loc 1 72 13 view .LVU31
 142 0020 0128     		cmp	r0, #1
 143 0022 14D0     		beq	.L14
  73:Hardware/Src/key.c ****     {
  74:Hardware/Src/key.c ****         key_up = 1;
  75:Hardware/Src/key.c ****     }
  76:Hardware/Src/key.c ****     return 0; //无按键按下
 144              		.loc 1 76 12 view .LVU32
 145 0024 0024     		movs	r4, #0
 146              	.L8:
  77:Hardware/Src/key.c **** }
 147              		.loc 1 77 1 view .LVU33
 148 0026 2046     		mov	r0, r4
 149 0028 10BD     		pop	{r4, pc}
 150              	.LVL5:
 151              	.L12:
  47:Hardware/Src/key.c ****     // if (key_up && (KEY0 == 0 || KEY1 == 0 || KEY2 == 0 || WK_UP == 1))
 152              		.loc 1 47 9 is_stmt 1 view .LVU34
  47:Hardware/Src/key.c ****     // if (key_up && (KEY0 == 0 || KEY1 == 0 || KEY2 == 0 || WK_UP == 1))
ARM GAS  C:\Users\11655\AppData\Local\Temp\cc3CYiFH.s 			page 5


 153              		.loc 1 47 16 is_stmt 0 view .LVU35
 154 002a 0B4B     		ldr	r3, .L15
 155 002c 0122     		movs	r2, #1
 156 002e 1A70     		strb	r2, [r3]
 157 0030 E9E7     		b	.L6
 158              	.LVL6:
 159              	.L13:
  65:Hardware/Src/key.c ****         key_up = 0;
 160              		.loc 1 65 9 is_stmt 1 view .LVU36
 161 0032 0A20     		movs	r0, #10
 162 0034 FFF7FEFF 		bl	delay_ms
 163              	.LVL7:
  66:Hardware/Src/key.c ****         if (WK_UP == 0)
 164              		.loc 1 66 9 view .LVU37
  66:Hardware/Src/key.c ****         if (WK_UP == 0)
 165              		.loc 1 66 16 is_stmt 0 view .LVU38
 166 0038 074B     		ldr	r3, .L15
 167 003a 0022     		movs	r2, #0
 168 003c 1A70     		strb	r2, [r3]
  67:Hardware/Src/key.c ****         {
 169              		.loc 1 67 9 is_stmt 1 view .LVU39
  67:Hardware/Src/key.c ****         {
 170              		.loc 1 67 13 is_stmt 0 view .LVU40
 171 003e 0121     		movs	r1, #1
 172 0040 0648     		ldr	r0, .L15+4
 173 0042 FFF7FEFF 		bl	HAL_GPIO_ReadPin
 174              	.LVL8:
  67:Hardware/Src/key.c ****         {
 175              		.loc 1 67 12 view .LVU41
 176 0046 0028     		cmp	r0, #0
 177 0048 EDD1     		bne	.L8
  69:Hardware/Src/key.c ****         }
 178              		.loc 1 69 20 view .LVU42
 179 004a 0124     		movs	r4, #1
 180 004c EBE7     		b	.L8
 181              	.L14:
  74:Hardware/Src/key.c ****     }
 182              		.loc 1 74 9 is_stmt 1 view .LVU43
  74:Hardware/Src/key.c ****     }
 183              		.loc 1 74 16 is_stmt 0 view .LVU44
 184 004e 024B     		ldr	r3, .L15
 185 0050 0122     		movs	r2, #1
 186 0052 1A70     		strb	r2, [r3]
  76:Hardware/Src/key.c **** }
 187              		.loc 1 76 12 view .LVU45
 188 0054 0024     		movs	r4, #0
 189 0056 E6E7     		b	.L8
 190              	.L16:
 191              		.align	2
 192              	.L15:
 193 0058 00000000 		.word	.LANCHOR0
 194 005c 00000240 		.word	1073872896
 195              		.cfi_endproc
 196              	.LFE131:
 198              		.section	.data.key_up.0,"aw"
 199              		.set	.LANCHOR0,. + 0
 202              	key_up.0:
ARM GAS  C:\Users\11655\AppData\Local\Temp\cc3CYiFH.s 			page 6


 203 0000 01       		.byte	1
 204              		.text
 205              	.Letext0:
 206              		.file 2 "c:\\program files (x86)\\gnu arm embedded toolchain\\10 2021.10\\arm-none-eabi\\include\\
 207              		.file 3 "c:\\program files (x86)\\gnu arm embedded toolchain\\10 2021.10\\arm-none-eabi\\include\\
 208              		.file 4 "Drivers/CMSIS/Device/ST/STM32F4xx/Include/stm32f401xc.h"
 209              		.file 5 "Drivers/STM32F4xx_HAL_Driver/Inc/stm32f4xx_hal_gpio.h"
 210              		.file 6 "User/Inc/delay.h"
 211              		.file 7 "User/Inc/sys.h"
ARM GAS  C:\Users\11655\AppData\Local\Temp\cc3CYiFH.s 			page 7

