ARM GAS  C:\Users\11655\AppData\Local\Temp\ccfXvAOw.s 			page 1


   1              		.cpu cortex-m4
   2              		.arch armv7e-m
   3              		.fpu fpv4-sp-d16
   4              		.eabi_attribute 27, 1
   5              		.eabi_attribute 28, 1
   6              		.eabi_attribute 20, 1
   7              		.eabi_attribute 21, 1
   8              		.eabi_attribute 23, 3
   9              		.eabi_attribute 24, 1
  10              		.eabi_attribute 25, 1
  11              		.eabi_attribute 26, 1
  12              		.eabi_attribute 30, 1
  13              		.eabi_attribute 34, 1
  14              		.eabi_attribute 18, 4
  15              		.file	"led.c"
  16              		.text
  17              	.Ltext0:
  18              		.cfi_sections	.debug_frame
  19              		.section	.text.LED_Init,"ax",%progbits
  20              		.align	1
  21              		.global	LED_Init
  22              		.syntax unified
  23              		.thumb
  24              		.thumb_func
  26              	LED_Init:
  27              	.LFB130:
  28              		.file 1 "Hardware/Src/led.c"
   1:Hardware/Src/led.c **** #include "led.h"
   2:Hardware/Src/led.c **** 
   3:Hardware/Src/led.c **** /**
   4:Hardware/Src/led.c ****  * @brief	åˆ©ç”¨HALåº“å‡½æ•°è¿›è¡ŒLEDåˆå§‹åŒ–
   5:Hardware/Src/led.c ****  * @param 	none
   6:Hardware/Src/led.c ****  * @arg		none
   7:Hardware/Src/led.c ****  * @note  	å…ˆå¼€å¯GPIOæ—¶é’Ÿï¼Œå†åˆ©ç”¨HAL_GPIO_Init();å‡½æ•°è¿›è¡Œç®¡è„šåˆå§‹åŒ–ï¼Œå†è®¾ç½®é»
   8:Hardware/Src/led.c ****  * @retval	none
   9:Hardware/Src/led.c ****  */
  10:Hardware/Src/led.c **** void LED_Init(void)
  11:Hardware/Src/led.c **** {
  29              		.loc 1 11 1 view -0
  30              		.cfi_startproc
  31              		@ args = 0, pretend = 0, frame = 24
  32              		@ frame_needed = 0, uses_anonymous_args = 0
  33 0000 70B5     		push	{r4, r5, r6, lr}
  34              	.LCFI0:
  35              		.cfi_def_cfa_offset 16
  36              		.cfi_offset 4, -16
  37              		.cfi_offset 5, -12
  38              		.cfi_offset 6, -8
  39              		.cfi_offset 14, -4
  40 0002 86B0     		sub	sp, sp, #24
  41              	.LCFI1:
  42              		.cfi_def_cfa_offset 40
  12:Hardware/Src/led.c **** 	GPIO_InitTypeDef GPIO_InitTure;
  43              		.loc 1 12 2 view .LVU1
  13:Hardware/Src/led.c **** 
  14:Hardware/Src/led.c **** 	__HAL_RCC_GPIOC_CLK_ENABLE(); // å¼€å¯GPIOBæ—¶é’Ÿ
  44              		.loc 1 14 2 view .LVU2
ARM GAS  C:\Users\11655\AppData\Local\Temp\ccfXvAOw.s 			page 2


  45              	.LBB2:
  46              		.loc 1 14 2 view .LVU3
  47 0004 0023     		movs	r3, #0
  48 0006 0093     		str	r3, [sp]
  49              		.loc 1 14 2 view .LVU4
  50 0008 0E4B     		ldr	r3, .L3
  51 000a 1A6B     		ldr	r2, [r3, #48]
  52 000c 42F00402 		orr	r2, r2, #4
  53 0010 1A63     		str	r2, [r3, #48]
  54              		.loc 1 14 2 view .LVU5
  55 0012 1B6B     		ldr	r3, [r3, #48]
  56 0014 03F00403 		and	r3, r3, #4
  57 0018 0093     		str	r3, [sp]
  58              		.loc 1 14 2 view .LVU6
  59 001a 009B     		ldr	r3, [sp]
  60              	.LBE2:
  61              		.loc 1 14 2 view .LVU7
  15:Hardware/Src/led.c **** 	/*ARMçš„èŠ¯ç‰‡éƒ½æ˜¯è¿™æ ·ï¼Œå¤–è®¾é€šå¸¸éƒ½æ˜¯ç»™äº†æ—¶é’Ÿåï¼Œæ‰èƒ½è®¾ç½®å®ƒçš„å¯„å­˜å™¨,è¿™ä¹
  16:Hardware/Src/led.c **** 
  17:Hardware/Src/led.c **** 	/*è¿›è¡Œç»“æ„ä½“å†…çš„å‚æ•°é…ç½®ï¼Œå…ˆæ‰¾åˆ°ä¸‹é¢HAL_GPIO_Init();çš„å®šä¹‰å¤„ï¼Œå†å¯¹å®šä¹‰å¤
  18:Hardware/Src/led.c **** 	GPIO_InitTure.Mode = GPIO_MODE_OUTPUT_PP;	// æ¨æŒ½è¾“å‡º
  62              		.loc 1 18 2 view .LVU8
  63              		.loc 1 18 21 is_stmt 0 view .LVU9
  64 001c 0124     		movs	r4, #1
  65 001e 0294     		str	r4, [sp, #8]
  19:Hardware/Src/led.c **** 	GPIO_InitTure.Pull = GPIO_PULLUP;			// ä¸Šæ‹‰
  66              		.loc 1 19 2 is_stmt 1 view .LVU10
  67              		.loc 1 19 21 is_stmt 0 view .LVU11
  68 0020 0394     		str	r4, [sp, #12]
  20:Hardware/Src/led.c **** 	GPIO_InitTure.Speed = GPIO_SPEED_FREQ_HIGH; // é«˜é€Ÿ
  69              		.loc 1 20 2 is_stmt 1 view .LVU12
  70              		.loc 1 20 22 is_stmt 0 view .LVU13
  71 0022 0223     		movs	r3, #2
  72 0024 0493     		str	r3, [sp, #16]
  21:Hardware/Src/led.c **** 	GPIO_InitTure.Pin = GPIO_PIN_13;			// è®¾ç½®GPIOxçš„5å£
  73              		.loc 1 21 2 is_stmt 1 view .LVU14
  74              		.loc 1 21 20 is_stmt 0 view .LVU15
  75 0026 4FF40056 		mov	r6, #8192
  76 002a 0196     		str	r6, [sp, #4]
  22:Hardware/Src/led.c **** 
  23:Hardware/Src/led.c **** 	HAL_GPIO_Init(GPIOC, &GPIO_InitTure); // å…ˆåœ¨ä¸Šé¢å››è¡Œè®¾ç½®GPIOçš„æ¨¡å¼ï¼Œä¸Šä¸‹æ‹‰ï¼Œé€Ÿåº
  77              		.loc 1 23 2 is_stmt 1 view .LVU16
  78 002c 064D     		ldr	r5, .L3+4
  79 002e 01A9     		add	r1, sp, #4
  80 0030 2846     		mov	r0, r5
  81 0032 FFF7FEFF 		bl	HAL_GPIO_Init
  82              	.LVL0:
  24:Hardware/Src/led.c **** 
  25:Hardware/Src/led.c **** 	HAL_GPIO_WritePin(GPIOC, GPIO_PIN_13, GPIO_PIN_SET); // PB5ç½®1ï¼Œé»˜è®¤åˆå§‹åŒ–åç¯ç­
  83              		.loc 1 25 2 view .LVU17
  84 0036 2246     		mov	r2, r4
  85 0038 3146     		mov	r1, r6
  86 003a 2846     		mov	r0, r5
  87 003c FFF7FEFF 		bl	HAL_GPIO_WritePin
  88              	.LVL1:
  26:Hardware/Src/led.c **** }
  89              		.loc 1 26 1 is_stmt 0 view .LVU18
ARM GAS  C:\Users\11655\AppData\Local\Temp\ccfXvAOw.s 			page 3


  90 0040 06B0     		add	sp, sp, #24
  91              	.LCFI2:
  92              		.cfi_def_cfa_offset 16
  93              		@ sp needed
  94 0042 70BD     		pop	{r4, r5, r6, pc}
  95              	.L4:
  96              		.align	2
  97              	.L3:
  98 0044 00380240 		.word	1073887232
  99 0048 00080240 		.word	1073874944
 100              		.cfi_endproc
 101              	.LFE130:
 103              		.section	.text.LED_Reverse,"ax",%progbits
 104              		.align	1
 105              		.global	LED_Reverse
 106              		.syntax unified
 107              		.thumb
 108              		.thumb_func
 110              	LED_Reverse:
 111              	.LFB131:
  27:Hardware/Src/led.c **** 
  28:Hardware/Src/led.c **** /**
  29:Hardware/Src/led.c ****  * @brief	LEDç¯äº¤æ›¿é—ªçƒ
  30:Hardware/Src/led.c ****  * @param 	none
  31:Hardware/Src/led.c ****  * @arg		none
  32:Hardware/Src/led.c ****  * @note  	åˆå§‹åŒ–å‡½æ•°ååˆ©ç”¨HAL_GPIO_xxxxä»¥è¾¾åˆ°LEDç¯çŠ¶æ€å–å
  33:Hardware/Src/led.c ****  * @retval	void
  34:Hardware/Src/led.c ****  */
  35:Hardware/Src/led.c **** void LED_Reverse(void)
  36:Hardware/Src/led.c **** {
 112              		.loc 1 36 1 is_stmt 1 view -0
 113              		.cfi_startproc
 114              		@ args = 0, pretend = 0, frame = 0
 115              		@ frame_needed = 0, uses_anonymous_args = 0
 116 0000 10B5     		push	{r4, lr}
 117              	.LCFI3:
 118              		.cfi_def_cfa_offset 8
 119              		.cfi_offset 4, -8
 120              		.cfi_offset 14, -4
  37:Hardware/Src/led.c **** 	HAL_GPIO_WritePin(GPIOC, GPIO_PIN_13, !HAL_GPIO_ReadPin(GPIOC, GPIO_PIN_13)); // GPIOB13å–å
 121              		.loc 1 37 2 view .LVU20
 122              		.loc 1 37 41 is_stmt 0 view .LVU21
 123 0002 074C     		ldr	r4, .L7
 124 0004 4FF40051 		mov	r1, #8192
 125 0008 2046     		mov	r0, r4
 126 000a FFF7FEFF 		bl	HAL_GPIO_ReadPin
 127              	.LVL2:
 128              		.loc 1 37 2 view .LVU22
 129 000e B0FA80F2 		clz	r2, r0
 130 0012 5209     		lsrs	r2, r2, #5
 131 0014 4FF40051 		mov	r1, #8192
 132 0018 2046     		mov	r0, r4
 133 001a FFF7FEFF 		bl	HAL_GPIO_WritePin
 134              	.LVL3:
  38:Hardware/Src/led.c **** }...
 135              		.loc 1 38 1 view .LVU23
 136 001e 10BD     		pop	{r4, pc}
ARM GAS  C:\Users\11655\AppData\Local\Temp\ccfXvAOw.s 			page 4


 137              	.L8:
 138              		.align	2
 139              	.L7:
 140 0020 00080240 		.word	1073874944
 141              		.cfi_endproc
 142              	.LFE131:
 144              		.text
 145              	.Letext0:
 146              		.file 2 "c:\\program files (x86)\\gnu arm embedded toolchain\\10 2021.10\\arm-none-eabi\\include\\
 147              		.file 3 "c:\\program files (x86)\\gnu arm embedded toolchain\\10 2021.10\\arm-none-eabi\\include\\
 148              		.file 4 "Drivers/CMSIS/Device/ST/STM32F4xx/Include/stm32f401xc.h"
 149              		.file 5 "Drivers/STM32F4xx_HAL_Driver/Inc/stm32f4xx_hal_gpio.h"
ARM GAS  C:\Users\11655\AppData\Local\Temp\ccfXvAOw.s 			page 5

